---
triple:          'arm64-apple-darwin'
binary-path:     my_program
relocations:
  - { offset: 0xA860, size: 0x8, addend: 0x0, symName: __ZStL8__ioinit, symObjAddr: 0x37D9F, symBinAddr: 0x100018000, symSize: 0x0 }
  - { offset: 0xB42D, size: 0x8, addend: 0x0, symName: _main, symObjAddr: 0x894, symBinAddr: 0x100001700, symSize: 0x4C0 }
  - { offset: 0xB444, size: 0x8, addend: 0x0, symName: _main._omp_fn.0, symObjAddr: 0x3BB4, symBinAddr: 0x100004A20, symSize: 0x74 }
  - { offset: 0xB72D, size: 0x8, addend: 0x0, symName: __ZZ4mainENKUlvE_clEv, symObjAddr: 0x6C8, symBinAddr: 0x100001534, symSize: 0x28 }
  - { offset: 0xB7E2, size: 0x8, addend: 0x0, symName: __ZZ4mainENKUlvE0_clEv, symObjAddr: 0x6F0, symBinAddr: 0x10000155C, symSize: 0x28 }
  - { offset: 0xB897, size: 0x8, addend: 0x0, symName: __ZZ4mainENKUlvE1_clEv, symObjAddr: 0x718, symBinAddr: 0x100001584, symSize: 0x5C }
  - { offset: 0xB96D, size: 0x8, addend: 0x0, symName: __ZZ4mainENKUlvE2_clEv, symObjAddr: 0x774, symBinAddr: 0x1000015E0, symSize: 0x120 }
  - { offset: 0xBA8B, size: 0x8, addend: 0x0, symName: __ZNSt11__copy_moveILb0ELb0ESt26random_access_iterator_tagE12__assign_oneIdKdEEvPT_PT0_, symObjAddr: 0x3B8C, symBinAddr: 0x1000049F8, symSize: 0x28 }
  - { offset: 0xBAD5, size: 0x8, addend: 0x0, symName: __ZNSt11__copy_moveILb0ELb1ESt26random_access_iterator_tagE8__copy_mIKddEEPT0_PT_S7_S5_, symObjAddr: 0x3AFC, symBinAddr: 0x100004968, symSize: 0x90 }
  - { offset: 0xBB3F, size: 0x8, addend: 0x0, symName: __ZSt14__copy_move_a2ILb0EPKdPdET1_T0_S4_S3_, symObjAddr: 0x3AD0, symBinAddr: 0x10000493C, symSize: 0x2C }
  - { offset: 0xBBA8, size: 0x8, addend: 0x0, symName: __ZNK9__gnu_cxx17__normal_iteratorIPKdSt6vectorIdSaIdEEE4baseEv, symObjAddr: 0x3ABC, symBinAddr: 0x100004928, symSize: 0x14 }
  - { offset: 0xBBCC, size: 0x8, addend: 0x0, symName: __ZSt12__niter_wrapIPdET_RKS1_S1_, symObjAddr: 0x3AA4, symBinAddr: 0x100004910, symSize: 0x18 }
  - { offset: 0xBC06, size: 0x8, addend: 0x0, symName: __ZSt14__copy_move_a1ILb0EPKdPdET1_T0_S4_S3_, symObjAddr: 0x3A78, symBinAddr: 0x1000048E4, symSize: 0x2C }
  - { offset: 0xBC6A, size: 0x8, addend: 0x0, symName: __ZSt12__niter_baseIPdET_S1_, symObjAddr: 0x3A64, symBinAddr: 0x1000048D0, symSize: 0x14 }
  - { offset: 0xBC9B, size: 0x8, addend: 0x0, symName: __ZSt12__niter_baseIPKdSt6vectorIdSaIdEEET_N9__gnu_cxx17__normal_iteratorIS5_T0_EE, symObjAddr: 0x3A44, symBinAddr: 0x1000048B0, symSize: 0x20 }
  - { offset: 0xBCD5, size: 0x8, addend: 0x0, symName: __ZSt13__copy_move_aILb0EN9__gnu_cxx17__normal_iteratorIPKdSt6vectorIdSaIdEEEEPdET1_T0_SA_S9_, symObjAddr: 0x39E4, symBinAddr: 0x100004850, symSize: 0x60 }
  - { offset: 0xBD39, size: 0x8, addend: 0x0, symName: __ZSt12__miter_baseIN9__gnu_cxx17__normal_iteratorIPKdSt6vectorIdSaIdEEEEET_S8_, symObjAddr: 0x39D0, symBinAddr: 0x10000483C, symSize: 0x14 }
  - { offset: 0xBD6A, size: 0x8, addend: 0x0, symName: __ZSt4copyIN9__gnu_cxx17__normal_iteratorIPKdSt6vectorIdSaIdEEEEPdET0_T_SA_S9_, symObjAddr: 0x3988, symBinAddr: 0x1000047F4, symSize: 0x48 }
  - { offset: 0xBDC4, size: 0x8, addend: 0x0, symName: __ZNSt20__uninitialized_copyILb1EE13__uninit_copyIN9__gnu_cxx17__normal_iteratorIPKdSt6vectorIdSaIdEEEEPdEET0_T_SC_SB_, symObjAddr: 0x395C, symBinAddr: 0x1000047C8, symSize: 0x2C }
  - { offset: 0xBE1E, size: 0x8, addend: 0x0, symName: __ZNSt11__copy_moveILb0ELb0ESt26random_access_iterator_tagE12__assign_oneImKmEEvPT_PT0_, symObjAddr: 0x3934, symBinAddr: 0x1000047A0, symSize: 0x28 }
  - { offset: 0xBE68, size: 0x8, addend: 0x0, symName: __ZSt18uninitialized_copyIN9__gnu_cxx17__normal_iteratorIPKdSt6vectorIdSaIdEEEEPdET0_T_SA_S9_, symObjAddr: 0x38F8, symBinAddr: 0x100004764, symSize: 0x3C }
  - { offset: 0xBF0D, size: 0x8, addend: 0x0, symName: __ZN9__gnu_cxx17__normal_iteratorIPKdSt6vectorIdSaIdEEEC1ERKS2_, symObjAddr: 0x38D0, symBinAddr: 0x10000473C, symSize: 0x28 }
  - { offset: 0xBF4B, size: 0x8, addend: 0x0, symName: __ZNSt11__copy_moveILb0ELb1ESt26random_access_iterator_tagE8__copy_mIKmmEEPT0_PT_S7_S5_, symObjAddr: 0x3840, symBinAddr: 0x1000046AC, symSize: 0x90 }
  - { offset: 0xBFB5, size: 0x8, addend: 0x0, symName: __ZSt22__uninitialized_copy_aIN9__gnu_cxx17__normal_iteratorIPKdSt6vectorIdSaIdEEEEPddET0_T_SA_S9_RSaIT1_E, symObjAddr: 0x3810, symBinAddr: 0x10000467C, symSize: 0x30 }
  - { offset: 0xC026, size: 0x8, addend: 0x0, symName: __ZNKSt6vectorIdSaIdEE3endEv, symObjAddr: 0x37E8, symBinAddr: 0x100004654, symSize: 0x28 }
  - { offset: 0xC04F, size: 0x8, addend: 0x0, symName: __ZNKSt6vectorIdSaIdEE5beginEv, symObjAddr: 0x37C4, symBinAddr: 0x100004630, symSize: 0x24 }
  - { offset: 0xC08D, size: 0x8, addend: 0x0, symName: __ZNKSt12_Vector_baseIdSaIdEE19_M_get_Tp_allocatorEv, symObjAddr: 0x37B0, symBinAddr: 0x10000461C, symSize: 0x14 }
  - { offset: 0xC0B6, size: 0x8, addend: 0x0, symName: __ZNKSt6vectorIdSaIdEE4sizeEv, symObjAddr: 0x3788, symBinAddr: 0x1000045F4, symSize: 0x28 }
  - { offset: 0xC0DA, size: 0x8, addend: 0x0, symName: __ZSt9__fill_a1IPddEN9__gnu_cxx11__enable_ifIXsrSt11__is_scalarIT0_E7__valueEvE6__typeET_S8_RKS4_, symObjAddr: 0x3730, symBinAddr: 0x10000459C, symSize: 0x58 }
  - { offset: 0xC144, size: 0x8, addend: 0x0, symName: __ZSt14__copy_move_a2ILb0EPKmPmET1_T0_S4_S3_, symObjAddr: 0x3704, symBinAddr: 0x100004570, symSize: 0x2C }
  - { offset: 0xC1D5, size: 0x8, addend: 0x0, symName: __ZNSt6vectorIdSaIdEEC1ERKS1_, symObjAddr: 0x35F0, symBinAddr: 0x10000445C, symSize: 0x114 }
  - { offset: 0xC2DD, size: 0x8, addend: 0x0, symName: __ZSt7forwardIRKSt6vectorIdSaIdEEEOT_RNSt16remove_referenceIS5_E4typeE, symObjAddr: 0x35DC, symBinAddr: 0x100004448, symSize: 0x14 }
  - { offset: 0xC30E, size: 0x8, addend: 0x0, symName: __ZSt8__fill_aIPddEvT_S1_RKT0_, symObjAddr: 0x35AC, symBinAddr: 0x100004418, symSize: 0x30 }
  - { offset: 0xC368, size: 0x8, addend: 0x0, symName: __ZSt12__niter_wrapIPmET_RKS1_S1_, symObjAddr: 0x3594, symBinAddr: 0x100004400, symSize: 0x18 }
  - { offset: 0xC3A2, size: 0x8, addend: 0x0, symName: __ZSt14__copy_move_a1ILb0EPKmPmET1_T0_S4_S3_, symObjAddr: 0x3568, symBinAddr: 0x1000043D4, symSize: 0x2C }
  - { offset: 0xC406, size: 0x8, addend: 0x0, symName: __ZSt12__niter_baseIPmET_S1_, symObjAddr: 0x3554, symBinAddr: 0x1000043C0, symSize: 0x14 }
  - { offset: 0xC437, size: 0x8, addend: 0x0, symName: __ZSt12__niter_baseIPKmET_S2_, symObjAddr: 0x3540, symBinAddr: 0x1000043AC, symSize: 0x14 }
  - { offset: 0xC468, size: 0x8, addend: 0x0, symName: __ZSt10_ConstructISt6vectorIdSaIdEEJRKS2_EEvPT_DpOT0_, symObjAddr: 0x34C4, symBinAddr: 0x100004330, symSize: 0x7C }
  - { offset: 0xC4B3, size: 0x8, addend: 0x0, symName: __ZSt10__fill_n_aIPdmdET_S1_T0_RKT1_St26random_access_iterator_tag, symObjAddr: 0x3460, symBinAddr: 0x1000042CC, symSize: 0x64 }
  - { offset: 0xC535, size: 0x8, addend: 0x0, symName: __ZSt13__copy_move_aILb0EPKmPmET1_T0_S4_S3_, symObjAddr: 0x3400, symBinAddr: 0x10000426C, symSize: 0x60 }
  - { offset: 0xC599, size: 0x8, addend: 0x0, symName: __ZSt12__miter_baseIPKmET_S2_, symObjAddr: 0x33EC, symBinAddr: 0x100004258, symSize: 0x14 }
  - { offset: 0xC5CA, size: 0x8, addend: 0x0, symName: __ZSt18__do_uninit_fill_nIPSt6vectorIdSaIdEEmS2_ET_S4_T0_RKT1_, symObjAddr: 0x335C, symBinAddr: 0x1000041C8, symSize: 0x90 }
  - { offset: 0xC642, size: 0x8, addend: 0x0, symName: __ZNSt15__new_allocatorISt6vectorIdSaIdEEE8allocateEmPKv, symObjAddr: 0x32D0, symBinAddr: 0x10000413C, symSize: 0x8C }
  - { offset: 0xC6B6, size: 0x8, addend: 0x0, symName: __ZSt6fill_nIPdmdET_S1_T0_RKT1_, symObjAddr: 0x3288, symBinAddr: 0x1000040F4, symSize: 0x48 }
  - { offset: 0xC739, size: 0x8, addend: 0x0, symName: __ZSt10_ConstructIdJEEvPT_DpOT0_, symObjAddr: 0x325C, symBinAddr: 0x1000040C8, symSize: 0x2C }
  - { offset: 0xC774, size: 0x8, addend: 0x0, symName: __ZSt11__addressofIdEPT_RS0_, symObjAddr: 0x3248, symBinAddr: 0x1000040B4, symSize: 0x14 }
  - { offset: 0xC7AA, size: 0x8, addend: 0x0, symName: __ZNSt15__new_allocatorIdE8allocateEmPKv, symObjAddr: 0x31D0, symBinAddr: 0x10000403C, symSize: 0x78 }
  - { offset: 0xC81E, size: 0x8, addend: 0x0, symName: __ZSt4copyIPKmPmET0_T_S4_S3_, symObjAddr: 0x3188, symBinAddr: 0x100003FF4, symSize: 0x48 }
  - { offset: 0xC8AD, size: 0x8, addend: 0x0, symName: __ZNSt23mersenne_twister_engineIjLm32ELm624ELm397ELm31ELj2567483615ELm11ELj4294967295ELm7ELj2636928640ELm15ELj4022730752ELm18ELj1812433253EE11_M_gen_randEv, symObjAddr: 0x2FC8, symBinAddr: 0x100003E34, symSize: 0x1C0 }
  - { offset: 0xC989, size: 0x8, addend: 0x0, symName: __ZSt8_DestroyISt6vectorIdSaIdEEEvPT_, symObjAddr: 0x2FA8, symBinAddr: 0x100003E14, symSize: 0x20 }
  - { offset: 0xC9BA, size: 0x8, addend: 0x0, symName: __ZSt11__addressofISt6vectorIdSaIdEEEPT_RS3_, symObjAddr: 0x2F94, symBinAddr: 0x100003E00, symSize: 0x14 }
  - { offset: 0xC9EB, size: 0x8, addend: 0x0, symName: __ZNSt22__uninitialized_fill_nILb0EE15__uninit_fill_nIPSt6vectorIdSaIdEEmS4_EET_S6_T0_RKT1_, symObjAddr: 0x2F68, symBinAddr: 0x100003DD4, symSize: 0x2C }
  - { offset: 0xCA53, size: 0x8, addend: 0x0, symName: __ZNSt15__new_allocatorISt6vectorIdSaIdEEE10deallocateEPS2_m, symObjAddr: 0x2F40, symBinAddr: 0x100003DAC, symSize: 0x28 }
  - { offset: 0xCAD1, size: 0x8, addend: 0x0, symName: __ZNSt27__uninitialized_default_n_1ILb1EE18__uninit_default_nIPdmEET_S3_T0_, symObjAddr: 0x2EDC, symBinAddr: 0x100003D48, symSize: 0x64 }
  - { offset: 0xCB48, size: 0x8, addend: 0x0, symName: __ZNSt15__new_allocatorIdE10deallocateEPdm, symObjAddr: 0x2EB4, symBinAddr: 0x100003D20, symSize: 0x28 }
  - { offset: 0xCBFC, size: 0x8, addend: 0x0, symName: __ZNSt6chrono8durationIdSt5ratioILl1ELl1EEEC1IdvEERKT_, symObjAddr: 0x2E8C, symBinAddr: 0x100003CF8, symSize: 0x28 }
  - { offset: 0xCC2D, size: 0x8, addend: 0x0, symName: __ZNSt20__uninitialized_copyILb1EE13__uninit_copyIPKmPmEET0_T_S6_S5_, symObjAddr: 0x2E60, symBinAddr: 0x100003CCC, symSize: 0x2C }
  - { offset: 0xCC8C, size: 0x8, addend: 0x0, symName: __ZNSt15__new_allocatorImE8allocateEmPKv, symObjAddr: 0x2DE8, symBinAddr: 0x100003C54, symSize: 0x78 }
  - { offset: 0xCD05, size: 0x8, addend: 0x0, symName: __ZNSt15__new_allocatorImE10deallocateEPmm, symObjAddr: 0x2DC0, symBinAddr: 0x100003C2C, symSize: 0x28 }
  - { offset: 0xCD6D, size: 0x8, addend: 0x0, symName: __ZNSt23mersenne_twister_engineIjLm32ELm624ELm397ELm31ELj2567483615ELm11ELj4294967295ELm7ELj2636928640ELm15ELj4022730752ELm18ELj1812433253EEclEv, symObjAddr: 0x2D0C, symBinAddr: 0x100003B78, symSize: 0xB4 }
  - { offset: 0xCDA1, size: 0x8, addend: 0x0, symName: __ZSt3maxImERKT_S2_S2_, symObjAddr: 0x2CD4, symBinAddr: 0x100003B40, symSize: 0x38 }
  - { offset: 0xCDE2, size: 0x8, addend: 0x0, symName: __ZNSt12_Destroy_auxILb0EE9__destroyIPSt6vectorIdSaIdEEEEvT_S6_, symObjAddr: 0x2C88, symBinAddr: 0x100003AF4, symSize: 0x4C }
  - { offset: 0xCE23, size: 0x8, addend: 0x0, symName: __ZSt20uninitialized_fill_nIPSt6vectorIdSaIdEEmS2_ET_S4_T0_RKT1_, symObjAddr: 0x2C58, symBinAddr: 0x100003AC4, symSize: 0x30 }
  - { offset: 0xCECD, size: 0x8, addend: 0x0, symName: __ZNSt12_Vector_baseISt6vectorIdSaIdEESaIS2_EE11_M_allocateEm, symObjAddr: 0x2C08, symBinAddr: 0x100003A74, symSize: 0x50 }
  - { offset: 0xCF4B, size: 0x8, addend: 0x0, symName: __ZNSt12_Vector_baseISt6vectorIdSaIdEESaIS2_EE17_Vector_impl_dataC2Ev, symObjAddr: 0x2BDC, symBinAddr: 0x100003A48, symSize: 0x2C }
  - { offset: 0xCF9C, size: 0x8, addend: 0x0, symName: __ZNSt12_Destroy_auxILb1EE9__destroyIPdEEvT_S3_, symObjAddr: 0x2BC4, symBinAddr: 0x100003A30, symSize: 0x18 }
  - { offset: 0xCFCF, size: 0x8, addend: 0x0, symName: __ZSt25__uninitialized_default_nIPdmET_S1_T0_, symObjAddr: 0x2B98, symBinAddr: 0x100003A04, symSize: 0x2C }
  - { offset: 0xD061, size: 0x8, addend: 0x0, symName: __ZNSt12_Vector_baseIdSaIdEE11_M_allocateEm, symObjAddr: 0x2B48, symBinAddr: 0x1000039B4, symSize: 0x50 }
  - { offset: 0xD0DF, size: 0x8, addend: 0x0, symName: __ZNSt12_Vector_baseIdSaIdEE17_Vector_impl_dataC2Ev, symObjAddr: 0x2B1C, symBinAddr: 0x100003988, symSize: 0x2C }
  - { offset: 0xD11A, size: 0x8, addend: 0x0, symName: __ZSt3minImERKT_S2_S2_, symObjAddr: 0x2AE4, symBinAddr: 0x100003950, symSize: 0x38 }
  - { offset: 0xD171, size: 0x8, addend: 0x0, symName: __ZNSt6chrono20__duration_cast_implINS_8durationIdSt5ratioILl1ELl1EEEES2_ILl1ELl1000000000EEdLb1ELb0EE6__castIxS5_EES4_RKNS1_IT_T0_EE, symObjAddr: 0x2A94, symBinAddr: 0x100003900, symSize: 0x50 }
  - { offset: 0xD1B7, size: 0x8, addend: 0x0, symName: __ZNSt12_Destroy_auxILb1EE9__destroyIPmEEvT_S3_, symObjAddr: 0x2A7C, symBinAddr: 0x1000038E8, symSize: 0x18 }
  - { offset: 0xD1EA, size: 0x8, addend: 0x0, symName: __ZSt18uninitialized_copyIPKmPmET0_T_S4_S3_, symObjAddr: 0x2A40, symBinAddr: 0x1000038AC, symSize: 0x3C }
  - { offset: 0xD286, size: 0x8, addend: 0x0, symName: __ZNSt6vectorImSaImEE11_S_max_sizeERKS0_, symObjAddr: 0x29EC, symBinAddr: 0x100003858, symSize: 0x54 }
  - { offset: 0xD3CC, size: 0x8, addend: 0x0, symName: __ZNSt12_Vector_baseImSaImEE17_Vector_impl_dataC2Ev, symObjAddr: 0x29C0, symBinAddr: 0x10000382C, symSize: 0x2C }
  - { offset: 0xD40F, size: 0x8, addend: 0x0, symName: __ZSt18generate_canonicalIdLm53ESt23mersenne_twister_engineIjLm32ELm624ELm397ELm31ELj2567483615ELm11ELj4294967295ELm7ELj2636928640ELm15ELj4022730752ELm18ELj1812433253EEET_RT1_, symObjAddr: 0x2858, symBinAddr: 0x1000036C4, symSize: 0x168 }
  - { offset: 0xD4E7, size: 0x8, addend: 0x0, symName: __ZNSt23mersenne_twister_engineIjLm32ELm624ELm397ELm31ELj2567483615ELm11ELj4294967295ELm7ELj2636928640ELm15ELj4022730752ELm18ELj1812433253EE3minEv, symObjAddr: 0x2850, symBinAddr: 0x1000036BC, symSize: 0x8 }
  - { offset: 0xD4FE, size: 0x8, addend: 0x0, symName: __ZNSt8__detail4_ModIjLj624ELj1ELj0ELb1ELb1EE6__calcEj, symObjAddr: 0x2818, symBinAddr: 0x100003684, symSize: 0x38 }
  - { offset: 0xD535, size: 0x8, addend: 0x0, symName: __ZNSt8__detail4_ModIjLj0ELj1ELj0ELb1ELb0EE6__calcEj, symObjAddr: 0x27FC, symBinAddr: 0x100003668, symSize: 0x1C }
  - { offset: 0xD56C, size: 0x8, addend: 0x0, symName: __ZSt8_DestroyIPSt6vectorIdSaIdEEEvT_S4_, symObjAddr: 0x27D4, symBinAddr: 0x100003640, symSize: 0x28 }
  - { offset: 0xD5AD, size: 0x8, addend: 0x0, symName: __ZSt24__uninitialized_fill_n_aIPSt6vectorIdSaIdEEmS2_S2_ET_S4_T0_RKT1_RSaIT2_E, symObjAddr: 0x27A4, symBinAddr: 0x100003610, symSize: 0x30 }
  - { offset: 0xD627, size: 0x8, addend: 0x0, symName: __ZNSt12_Vector_baseISt6vectorIdSaIdEESaIS2_EE13_M_deallocateEPS2_m, symObjAddr: 0x274C, symBinAddr: 0x1000035B8, symSize: 0x58 }
  - { offset: 0xD6A3, size: 0x8, addend: 0x0, symName: __ZNSt12_Vector_baseISt6vectorIdSaIdEESaIS2_EE17_M_create_storageEm, symObjAddr: 0x26E0, symBinAddr: 0x10000354C, symSize: 0x6C }
  - { offset: 0xD703, size: 0x8, addend: 0x0, symName: __ZNSt12_Vector_baseISt6vectorIdSaIdEESaIS2_EE12_Vector_implC1ERKS3_, symObjAddr: 0x2694, symBinAddr: 0x100003500, symSize: 0x4C }
  - { offset: 0xD7A0, size: 0x8, addend: 0x0, symName: __ZNSt6vectorIS_IdSaIdEESaIS1_EE11_S_max_sizeERKS2_, symObjAddr: 0x2638, symBinAddr: 0x1000034A4, symSize: 0x5C }
  - { offset: 0xD84F, size: 0x8, addend: 0x0, symName: __ZSt8_DestroyIPdEvT_S1_, symObjAddr: 0x2610, symBinAddr: 0x10000347C, symSize: 0x28 }
  - { offset: 0xD890, size: 0x8, addend: 0x0, symName: __ZSt27__uninitialized_default_n_aIPdmdET_S1_T0_RSaIT1_E, symObjAddr: 0x25E8, symBinAddr: 0x100003454, symSize: 0x28 }
  - { offset: 0xD8F1, size: 0x8, addend: 0x0, symName: __ZNSt12_Vector_baseIdSaIdEE13_M_deallocateEPdm, symObjAddr: 0x2590, symBinAddr: 0x1000033FC, symSize: 0x58 }
  - { offset: 0xD96D, size: 0x8, addend: 0x0, symName: __ZNSt12_Vector_baseIdSaIdEE17_M_create_storageEm, symObjAddr: 0x2530, symBinAddr: 0x10000339C, symSize: 0x60 }
  - { offset: 0xD9CD, size: 0x8, addend: 0x0, symName: __ZNSt12_Vector_baseIdSaIdEE12_Vector_implC1ERKS0_, symObjAddr: 0x24E4, symBinAddr: 0x100003350, symSize: 0x4C }
  - { offset: 0xDA6A, size: 0x8, addend: 0x0, symName: __ZNSt6vectorIdSaIdEE11_S_max_sizeERKS0_, symObjAddr: 0x2490, symBinAddr: 0x1000032FC, symSize: 0x54 }
  - { offset: 0xDB19, size: 0x8, addend: 0x0, symName: __ZNSt6chrono13duration_castINS_8durationIdSt5ratioILl1ELl1EEEExS2_ILl1ELl1000000000EEEENSt9enable_ifIXsrNS_13__is_durationIT_EE5valueES8_E4typeERKNS1_IT0_T1_EE, symObjAddr: 0x2464, symBinAddr: 0x1000032D0, symSize: 0x2C }
  - { offset: 0xDB5C, size: 0x8, addend: 0x0, symName: __ZSt8_DestroyIPmEvT_S1_, symObjAddr: 0x243C, symBinAddr: 0x1000032A8, symSize: 0x28 }
  - { offset: 0xDB9D, size: 0x8, addend: 0x0, symName: __ZSt22__uninitialized_copy_aIPKmPmmET0_T_S4_S3_RSaIT1_E, symObjAddr: 0x240C, symBinAddr: 0x100003278, symSize: 0x30 }
  - { offset: 0xDC0E, size: 0x8, addend: 0x0, symName: __ZNSt12_Vector_baseImSaImEE11_M_allocateEm, symObjAddr: 0x23BC, symBinAddr: 0x100003228, symSize: 0x50 }
  - { offset: 0xDC6D, size: 0x8, addend: 0x0, symName: __ZNSt6vectorImSaImEE17_S_check_init_lenEmRKS0_, symObjAddr: 0x2338, symBinAddr: 0x1000031A4, symSize: 0x84 }
  - { offset: 0xDD46, size: 0x8, addend: 0x0, symName: __ZNKSt16initializer_listImE4sizeEv, symObjAddr: 0x2320, symBinAddr: 0x10000318C, symSize: 0x18 }
  - { offset: 0xDD6F, size: 0x8, addend: 0x0, symName: __ZNSt12_Vector_baseImSaImEE13_M_deallocateEPmm, symObjAddr: 0x22C8, symBinAddr: 0x100003134, symSize: 0x58 }
  - { offset: 0xDE12, size: 0x8, addend: 0x0, symName: __ZNSt12_Vector_baseImSaImEE12_Vector_implC1ERKS0_, symObjAddr: 0x227C, symBinAddr: 0x1000030E8, symSize: 0x4C }
  - { offset: 0xDE91, size: 0x8, addend: 0x0, symName: __ZNKSt25uniform_real_distributionIdE10param_type1aEv, symObjAddr: 0x2260, symBinAddr: 0x1000030CC, symSize: 0x1C }
  - { offset: 0xDEBA, size: 0x8, addend: 0x0, symName: __ZNKSt25uniform_real_distributionIdE10param_type1bEv, symObjAddr: 0x2244, symBinAddr: 0x1000030B0, symSize: 0x1C }
  - { offset: 0xDEE3, size: 0x8, addend: 0x0, symName: __ZNKSt8__detail8_AdaptorISt23mersenne_twister_engineIjLm32ELm624ELm397ELm31ELj2567483615ELm11ELj4294967295ELm7ELj2636928640ELm15ELj4022730752ELm18ELj1812433253EEdE3maxEv, symObjAddr: 0x222C, symBinAddr: 0x100003098, symSize: 0x18 }
  - { offset: 0xDF0C, size: 0x8, addend: 0x0, symName: __ZNKSt8__detail8_AdaptorISt23mersenne_twister_engineIjLm32ELm624ELm397ELm31ELj2567483615ELm11ELj4294967295ELm7ELj2636928640ELm15ELj4022730752ELm18ELj1812433253EEdE3minEv, symObjAddr: 0x2214, symBinAddr: 0x100003080, symSize: 0x18 }
  - { offset: 0xDF35, size: 0x8, addend: 0x0, symName: __ZNSt8__detail8_AdaptorISt23mersenne_twister_engineIjLm32ELm624ELm397ELm31ELj2567483615ELm11ELj4294967295ELm7ELj2636928640ELm15ELj4022730752ELm18ELj1812433253EEdEclEv, symObjAddr: 0x21EC, symBinAddr: 0x100003058, symSize: 0x28 }
  - { offset: 0xDF86, size: 0x8, addend: 0x0, symName: __ZNSt8__detail8_AdaptorISt23mersenne_twister_engineIjLm32ELm624ELm397ELm31ELj2567483615ELm11ELj4294967295ELm7ELj2636928640ELm15ELj4022730752ELm18ELj1812433253EEdEC1ERS2_, symObjAddr: 0x21C8, symBinAddr: 0x100003034, symSize: 0x24 }
  - { offset: 0xDFAE, size: 0x8, addend: 0x0, symName: __ZNSt8__detail5__modIjLj624ELj1ELj0EEET_S1_, symObjAddr: 0x21AC, symBinAddr: 0x100003018, symSize: 0x1C }
  - { offset: 0xDFFE, size: 0x8, addend: 0x0, symName: __ZNSt8__detail5__modIjLj0ELj1ELj0EEET_S1_, symObjAddr: 0x2190, symBinAddr: 0x100002FFC, symSize: 0x1C }
  - { offset: 0xE052, size: 0x8, addend: 0x0, symName: __ZNSt12_Vector_baseISt6vectorIdSaIdEESaIS2_EE19_M_get_Tp_allocatorEv, symObjAddr: 0x217C, symBinAddr: 0x100002FE8, symSize: 0x14 }
  - { offset: 0xE07B, size: 0x8, addend: 0x0, symName: __ZNSt6vectorIS_IdSaIdEESaIS1_EE18_M_fill_initializeEmRKS1_, symObjAddr: 0x2124, symBinAddr: 0x100002F90, symSize: 0x58 }
  - { offset: 0xE0E8, size: 0x8, addend: 0x0, symName: __ZNSt12_Vector_baseISt6vectorIdSaIdEESaIS2_EED2Ev, symObjAddr: 0x20C8, symBinAddr: 0x100002F34, symSize: 0x5C }
  - { offset: 0xE143, size: 0x8, addend: 0x0, symName: __ZNSt12_Vector_baseISt6vectorIdSaIdEESaIS2_EEC2EmRKS3_, symObjAddr: 0x2074, symBinAddr: 0x100002EE0, symSize: 0x54 }
  - { offset: 0xE19F, size: 0x8, addend: 0x0, symName: __ZNSt12_Vector_baseISt6vectorIdSaIdEESaIS2_EE12_Vector_implD1Ev, symObjAddr: 0x2048, symBinAddr: 0x100002EB4, symSize: 0x2C }
  - { offset: 0xE1E0, size: 0x8, addend: 0x0, symName: __ZNSt6vectorIS_IdSaIdEESaIS1_EE17_S_check_init_lenEmRKS2_, symObjAddr: 0x1FC4, symBinAddr: 0x100002E30, symSize: 0x84 }
  - { offset: 0xE2B2, size: 0x8, addend: 0x0, symName: __ZNSt15__new_allocatorISt6vectorIdSaIdEEED2Ev, symObjAddr: 0x1FB0, symBinAddr: 0x100002E1C, symSize: 0x14 }
  - { offset: 0xE328, size: 0x8, addend: 0x0, symName: __ZNSt12_Vector_baseIdSaIdEE19_M_get_Tp_allocatorEv, symObjAddr: 0x1F9C, symBinAddr: 0x100002E08, symSize: 0x14 }
  - { offset: 0xE351, size: 0x8, addend: 0x0, symName: __ZNSt6vectorIdSaIdEE21_M_default_initializeEm, symObjAddr: 0x1F4C, symBinAddr: 0x100002DB8, symSize: 0x50 }
  - { offset: 0xE3AE, size: 0x8, addend: 0x0, symName: __ZNSt12_Vector_baseIdSaIdEED2Ev, symObjAddr: 0x1EFC, symBinAddr: 0x100002D68, symSize: 0x50 }
  - { offset: 0xE409, size: 0x8, addend: 0x0, symName: __ZNSt12_Vector_baseIdSaIdEEC2EmRKS0_, symObjAddr: 0x1EA8, symBinAddr: 0x100002D14, symSize: 0x54 }
  - { offset: 0xE465, size: 0x8, addend: 0x0, symName: __ZNSt12_Vector_baseIdSaIdEE12_Vector_implD1Ev, symObjAddr: 0x1E7C, symBinAddr: 0x100002CE8, symSize: 0x2C }
  - { offset: 0xE4A6, size: 0x8, addend: 0x0, symName: __ZNSt6vectorIdSaIdEE17_S_check_init_lenEmRKS0_, symObjAddr: 0x1DF8, symBinAddr: 0x100002C64, symSize: 0x84 }
  - { offset: 0xE578, size: 0x8, addend: 0x0, symName: __ZNSt15__new_allocatorIdED2Ev, symObjAddr: 0x1DE4, symBinAddr: 0x100002C50, symSize: 0x14 }
  - { offset: 0xE5B3, size: 0x8, addend: 0x0, symName: __ZNKSt6chrono8durationIdSt5ratioILl1ELl1EEE5countEv, symObjAddr: 0x1DC8, symBinAddr: 0x100002C34, symSize: 0x1C }
  - { offset: 0xE5D7, size: 0x8, addend: 0x0, symName: __ZNSt6chronomiIxSt5ratioILl1ELl1000000000EExS2_EENSt11common_typeIJNS_8durationIT_T0_EENS4_IT1_T2_EEEE4typeERKS7_RKSA_, symObjAddr: 0x1D64, symBinAddr: 0x100002BD0, symSize: 0x64 }
  - { offset: 0xE67F, size: 0x8, addend: 0x0, symName: __ZNSt6chrono8durationIdSt5ratioILl1ELl1EEEC1IxS1_ILl1ELl1000000000EEvEERKNS0_IT_T0_EE, symObjAddr: 0x1D24, symBinAddr: 0x100002B90, symSize: 0x40 }
  - { offset: 0xE6BE, size: 0x8, addend: 0x0, symName: __ZNK9__gnu_cxx17__normal_iteratorIPmSt6vectorImSaImEEE4baseEv, symObjAddr: 0x1D10, symBinAddr: 0x100002B7C, symSize: 0x14 }
  - { offset: 0xE70F, size: 0x8, addend: 0x0, symName: __ZN9__gnu_cxx17__normal_iteratorIPmSt6vectorImSaImEEEC1ERKS1_, symObjAddr: 0x1CE8, symBinAddr: 0x100002B54, symSize: 0x28 }
  - { offset: 0xE777, size: 0x8, addend: 0x0, symName: __ZNSt12_Vector_baseImSaImEE19_M_get_Tp_allocatorEv, symObjAddr: 0x1CD4, symBinAddr: 0x100002B40, symSize: 0x14 }
  - { offset: 0xE7A0, size: 0x8, addend: 0x0, symName: __ZNSt6vectorImSaImEE19_M_range_initializeIPKmEEvT_S5_St20forward_iterator_tag, symObjAddr: 0x1BF0, symBinAddr: 0x100002A5C, symSize: 0xE4 }
  - { offset: 0xE887, size: 0x8, addend: 0x0, symName: __ZNKSt16initializer_listImE3endEv, symObjAddr: 0x1BB8, symBinAddr: 0x100002A24, symSize: 0x38 }
  - { offset: 0xE8B0, size: 0x8, addend: 0x0, symName: __ZNKSt16initializer_listImE5beginEv, symObjAddr: 0x1BA0, symBinAddr: 0x100002A0C, symSize: 0x18 }
  - { offset: 0xE8FD, size: 0x8, addend: 0x0, symName: __ZNSt12_Vector_baseImSaImEED2Ev, symObjAddr: 0x1B50, symBinAddr: 0x1000029BC, symSize: 0x50 }
  - { offset: 0xE94A, size: 0x8, addend: 0x0, symName: __ZNSt12_Vector_baseImSaImEEC2ERKS0_, symObjAddr: 0x1B28, symBinAddr: 0x100002994, symSize: 0x28 }
  - { offset: 0xE99E, size: 0x8, addend: 0x0, symName: __ZNSt12_Vector_baseImSaImEE12_Vector_implD1Ev, symObjAddr: 0x1AFC, symBinAddr: 0x100002968, symSize: 0x2C }
  - { offset: 0xEA08, size: 0x8, addend: 0x0, symName: __ZNSt15__new_allocatorImED2Ev, symObjAddr: 0x1AE8, symBinAddr: 0x100002954, symSize: 0x14 }
  - { offset: 0xEA43, size: 0x8, addend: 0x0, symName: __ZNSt25uniform_real_distributionIdEclISt23mersenne_twister_engineIjLm32ELm624ELm397ELm31ELj2567483615ELm11ELj4294967295ELm7ELj2636928640ELm15ELj4022730752ELm18ELj1812433253EEEEdRT_RKNS0_10param_typeE, symObjAddr: 0x1A78, symBinAddr: 0x1000028E4, symSize: 0x70 }
  - { offset: 0xEAA5, size: 0x8, addend: 0x0, symName: __ZNSt22bernoulli_distributionclISt23mersenne_twister_engineIjLm32ELm624ELm397ELm31ELj2567483615ELm11ELj4294967295ELm7ELj2636928640ELm15ELj4022730752ELm18ELj1812433253EEEEbRT_RKNS_10param_typeE, symObjAddr: 0x19D4, symBinAddr: 0x100002840, symSize: 0xA4 }
  - { offset: 0xEB07, size: 0x8, addend: 0x0, symName: __ZNSt6vectorIdSaIdEEixEm, symObjAddr: 0x19AC, symBinAddr: 0x100002818, symSize: 0x28 }
  - { offset: 0xEB40, size: 0x8, addend: 0x0, symName: __ZNSt6vectorIS_IdSaIdEESaIS1_EEixEm, symObjAddr: 0x1978, symBinAddr: 0x1000027E4, symSize: 0x34 }
  - { offset: 0xEB79, size: 0x8, addend: 0x0, symName: __ZNK11adv_prog_cw15Matrix_06031927IdE10CheckRangeEmmPKc, symObjAddr: 0x17B0, symBinAddr: 0x10000261C, symSize: 0x1C8 }
  - { offset: 0xEC08, size: 0x8, addend: 0x0, symName: __ZNSt25uniform_real_distributionIdE10param_typeC1Edd, symObjAddr: 0x1740, symBinAddr: 0x1000025AC, symSize: 0x70 }
  - { offset: 0xEC5B, size: 0x8, addend: 0x0, symName: __ZNSt23mersenne_twister_engineIjLm32ELm624ELm397ELm31ELj2567483615ELm11ELj4294967295ELm7ELj2636928640ELm15ELj4022730752ELm18ELj1812433253EE4seedEj, symObjAddr: 0x1674, symBinAddr: 0x1000024E0, symSize: 0xCC }
  - { offset: 0xED1C, size: 0x8, addend: 0x0, symName: __ZNSt6vectorIS_IdSaIdEESaIS1_EEC1EmRKS1_RKS2_, symObjAddr: 0x1604, symBinAddr: 0x100002470, symSize: 0x70 }
  - { offset: 0xEDB3, size: 0x8, addend: 0x0, symName: __ZNSt6vectorIdSaIdEED1Ev, symObjAddr: 0x15A8, symBinAddr: 0x100002414, symSize: 0x5C }
  - { offset: 0xEE41, size: 0x8, addend: 0x0, symName: __ZNSt6vectorIdSaIdEEC1EmRKS0_, symObjAddr: 0x1540, symBinAddr: 0x1000023AC, symSize: 0x68 }
  - { offset: 0xEED0, size: 0x8, addend: 0x0, symName: __ZNSt15__new_allocatorIcED2Ev, symObjAddr: 0x152C, symBinAddr: 0x100002398, symSize: 0x14 }
  - { offset: 0xEF0E, size: 0x8, addend: 0x0, symName: __Z11measureTimeIZ4mainEUlvE2_EdT_RKNSt7__cxx1112basic_stringIcSt11char_traitsIcESaIcEEEm, symObjAddr: 0x142C, symBinAddr: 0x100002298, symSize: 0x100 }
  - { offset: 0xEF94, size: 0x8, addend: 0x0, symName: __Z11measureTimeIZ4mainEUlvE1_EdT_RKNSt7__cxx1112basic_stringIcSt11char_traitsIcESaIcEEEm, symObjAddr: 0x132C, symBinAddr: 0x100002198, symSize: 0x100 }
  - { offset: 0xF01A, size: 0x8, addend: 0x0, symName: __Z11measureTimeIZ4mainEUlvE0_EdT_RKNSt7__cxx1112basic_stringIcSt11char_traitsIcESaIcEEEm, symObjAddr: 0x122C, symBinAddr: 0x100002098, symSize: 0x100 }
  - { offset: 0xF0A0, size: 0x8, addend: 0x0, symName: __Z11measureTimeIZ4mainEUlvE_EdT_RKNSt7__cxx1112basic_stringIcSt11char_traitsIcESaIcEEEm, symObjAddr: 0x112C, symBinAddr: 0x100001F98, symSize: 0x100 }
  - { offset: 0xF124, size: 0x8, addend: 0x0, symName: __ZNSt6chronomiINS_3_V212system_clockENS_8durationIxSt5ratioILl1ELl1000000000EEEES6_EENSt11common_typeIJT0_T1_EE4typeERKNS_10time_pointIT_S8_EERKNSC_ISD_S9_EE, symObjAddr: 0x10F0, symBinAddr: 0x100001F5C, symSize: 0x3C }
  - { offset: 0xF17C, size: 0x8, addend: 0x0, symName: __ZNK9__gnu_cxx17__normal_iteratorIPmSt6vectorImSaImEEEdeEv, symObjAddr: 0x10D8, symBinAddr: 0x100001F44, symSize: 0x18 }
  - { offset: 0xF1A5, size: 0x8, addend: 0x0, symName: __ZN9__gnu_cxx17__normal_iteratorIPmSt6vectorImSaImEEEppEv, symObjAddr: 0x10B0, symBinAddr: 0x100001F1C, symSize: 0x28 }
  - { offset: 0xF1CF, size: 0x8, addend: 0x0, symName: __ZN9__gnu_cxxneIPmSt6vectorImSaImEEEEbRKNS_17__normal_iteratorIT_T0_EESA_, symObjAddr: 0x106C, symBinAddr: 0x100001ED8, symSize: 0x44 }
  - { offset: 0xF21E, size: 0x8, addend: 0x0, symName: __ZNSt6vectorImSaImEE3endEv, symObjAddr: 0x1044, symBinAddr: 0x100001EB0, symSize: 0x28 }
  - { offset: 0xF247, size: 0x8, addend: 0x0, symName: __ZNSt6vectorImSaImEE5beginEv, symObjAddr: 0x1020, symBinAddr: 0x100001E8C, symSize: 0x24 }
  - { offset: 0xF294, size: 0x8, addend: 0x0, symName: __ZNSt6vectorImSaImEED1Ev, symObjAddr: 0xFC4, symBinAddr: 0x100001E30, symSize: 0x5C }
  - { offset: 0xF322, size: 0x8, addend: 0x0, symName: __ZNSt6vectorImSaImEEC1ESt16initializer_listImERKS0_, symObjAddr: 0xF54, symBinAddr: 0x100001DC0, symSize: 0x70 }
  - { offset: 0xF38D, size: 0x8, addend: 0x0, symName: __ZNSt25uniform_real_distributionIdEclISt23mersenne_twister_engineIjLm32ELm624ELm397ELm31ELj2567483615ELm11ELj4294967295ELm7ELj2636928640ELm15ELj4022730752ELm18ELj1812433253EEEEdRT_, symObjAddr: 0xF20, symBinAddr: 0x100001D8C, symSize: 0x34 }
  - { offset: 0xF3CF, size: 0x8, addend: 0x0, symName: __ZNSt22bernoulli_distributionclISt23mersenne_twister_engineIjLm32ELm624ELm397ELm31ELj2567483615ELm11ELj4294967295ELm7ELj2636928640ELm15ELj4022730752ELm18ELj1812433253EEEEbRT_, symObjAddr: 0xEF4, symBinAddr: 0x100001D60, symSize: 0x2C }
  - { offset: 0xF411, size: 0x8, addend: 0x0, symName: __ZN11adv_prog_cw15Matrix_06031927IdEclEmm, symObjAddr: 0xEAC, symBinAddr: 0x100001D18, symSize: 0x48 }
  - { offset: 0xF490, size: 0x8, addend: 0x0, symName: __ZNSt25uniform_real_distributionIdEC1Edd, symObjAddr: 0xE7C, symBinAddr: 0x100001CE8, symSize: 0x30 }
  - { offset: 0xF4ED, size: 0x8, addend: 0x0, symName: __ZNSt23mersenne_twister_engineIjLm32ELm624ELm397ELm31ELj2567483615ELm11ELj4294967295ELm7ELj2636928640ELm15ELj4022730752ELm18ELj1812433253EEC1Ej, symObjAddr: 0xE54, symBinAddr: 0x100001CC0, symSize: 0x28 }
  - { offset: 0xF54E, size: 0x8, addend: 0x0, symName: __ZN11adv_prog_cw15Matrix_06031927IdEC1Emm, symObjAddr: 0xD6C, symBinAddr: 0x100001BD8, symSize: 0xE8 }
  - { offset: 0xF6B2, size: 0x8, addend: 0x0, symName: __ZNKSt6chrono10time_pointINS_3_V212system_clockENS_8durationIxSt5ratioILl1ELl1000000000EEEEE16time_since_epochEv, symObjAddr: 0xD54, symBinAddr: 0x100001BC0, symSize: 0x18 }
  - { offset: 0xF6E4, size: 0x8, addend: 0x0, symName: __Z21testInversionAccuracym, symObjAddr: 0x548, symBinAddr: 0x1000013B4, symSize: 0x180 }
  - { offset: 0xF75B, size: 0x8, addend: 0x0, symName: __Z23testDeterminantAccuracyv, symObjAddr: 0x3C0, symBinAddr: 0x10000122C, symSize: 0x188 }
  - { offset: 0xF7D6, size: 0x8, addend: 0x0, symName: __Z20generateRandomMatrixmm, symObjAddr: 0x278, symBinAddr: 0x1000010E4, symSize: 0x148 }
  - { offset: 0xF8CE, size: 0x8, addend: 0x0, symName: __ZNSt22bernoulli_distributionC1Ed, symObjAddr: 0x250, symBinAddr: 0x1000010BC, symSize: 0x28 }
  - { offset: 0xF8FB, size: 0x8, addend: 0x0, symName: __ZNKSt22bernoulli_distribution10param_type1pEv, symObjAddr: 0x234, symBinAddr: 0x1000010A0, symSize: 0x1C }
  - { offset: 0xF94C, size: 0x8, addend: 0x0, symName: __ZNSt22bernoulli_distribution10param_typeC1Ed, symObjAddr: 0x198, symBinAddr: 0x100001004, symSize: 0x9C }
  - { offset: 0xF993, size: 0x8, addend: 0x0, symName: __ZNSt13random_deviceclEv, symObjAddr: 0x17C, symBinAddr: 0x100000FE8, symSize: 0x1C }
  - { offset: 0xF9E0, size: 0x8, addend: 0x0, symName: __ZNSt13random_deviceD1Ev, symObjAddr: 0x15C, symBinAddr: 0x100000FC8, symSize: 0x20 }
  - { offset: 0xFA1F, size: 0x8, addend: 0x0, symName: __ZNSt13random_deviceC1Ev, symObjAddr: 0xC4, symBinAddr: 0x100000F30, symSize: 0x98 }
  - { offset: 0xFAC0, size: 0x8, addend: 0x0, symName: __ZSt3loge, symObjAddr: 0xA0, symBinAddr: 0x100000F0C, symSize: 0x24 }
  - { offset: 0xFAED, size: 0x8, addend: 0x0, symName: __ZNKSt6chrono8durationIxSt5ratioILl1ELl1000000000EEE5countEv, symObjAddr: 0x88, symBinAddr: 0x100000EF4, symSize: 0x18 }
  - { offset: 0xFB4D, size: 0x8, addend: 0x0, symName: __ZNSt6chrono8durationIxSt5ratioILl1ELl1000000000EEEC1IxvEERKT_, symObjAddr: 0x60, symBinAddr: 0x100000ECC, symSize: 0x28 }
  - { offset: 0xFB7E, size: 0x8, addend: 0x0, symName: __ZSt3absd, symObjAddr: 0x44, symBinAddr: 0x100000EB0, symSize: 0x1C }
  - { offset: 0xFBA6, size: 0x8, addend: 0x0, symName: __ZSt17__size_to_integerm, symObjAddr: 0x30, symBinAddr: 0x100000E9C, symSize: 0x14 }
  - { offset: 0xFBD6, size: 0x8, addend: 0x0, symName: __ZdlPvS_, symObjAddr: 0x18, symBinAddr: 0x100000E84, symSize: 0x18 }
  - { offset: 0xFC0C, size: 0x8, addend: 0x0, symName: __ZnwmPv, symObjAddr: 0x0, symBinAddr: 0x100000E6C, symSize: 0x18 }
  - { offset: 0x14FEC, size: 0x8, addend: 0x0, symName: __ZStL8__ioinit, symObjAddr: 0x4162E, symBinAddr: 0x100018001, symSize: 0x0 }
  - { offset: 0x15AAD, size: 0x8, addend: 0x0, symName: __ZNK11adv_prog_cw15Matrix_06031927IdE8Inverse2ERS1_, symObjAddr: 0x12C0, symBinAddr: 0x100005C14, symSize: 0x3C4 }
  - { offset: 0x15AE2, size: 0x8, addend: 0x0, symName: __ZNK11adv_prog_cw15Matrix_06031927IdE8Inverse2ERS1_._omp_fn.2, symObjAddr: 0x88B8, symBinAddr: 0x10000BC40, symSize: 0x114 }
  - { offset: 0x15C0A, size: 0x8, addend: 0x0, symName: __ZNK11adv_prog_cw15Matrix_06031927IdE8Inverse2ERS1_._omp_fn.0, symObjAddr: 0x8634, symBinAddr: 0x10000B9BC, symSize: 0x108 }
  - { offset: 0x15C90, size: 0x8, addend: 0x0, symName: __ZNK11adv_prog_cw15Matrix_06031927IdE8Inverse2ERS1_._omp_fn.1, symObjAddr: 0x873C, symBinAddr: 0x10000BAC4, symSize: 0x17C }
  - { offset: 0x15F6B, size: 0x8, addend: 0x0, symName: __ZN11adv_prog_cw14MatrixSubtractIdEENS_15Matrix_06031927IT_EERKS3_S5_, symObjAddr: 0x4614, symBinAddr: 0x1000087B8, symSize: 0x94 }
  - { offset: 0x15FAD, size: 0x8, addend: 0x0, symName: __ZN11adv_prog_cw14MatrixSubtractIdEENS_15Matrix_06031927IT_EERKS3_S5_._omp_fn.0, symObjAddr: 0x8510, symBinAddr: 0x10000B898, symSize: 0x124 }
  - { offset: 0x160C4, size: 0x8, addend: 0x0, symName: __ZN11adv_prog_cw16ParallelMultiplyIdEEvRKNS_15Matrix_06031927IT_EES5_RS3_, symObjAddr: 0x4574, symBinAddr: 0x100008718, symSize: 0xA0 }
  - { offset: 0x16117, size: 0x8, addend: 0x0, symName: __ZN11adv_prog_cw16ParallelMultiplyIdEEvRKNS_15Matrix_06031927IT_EES5_RS3_._omp_fn.0, symObjAddr: 0x83A4, symBinAddr: 0x10000B72C, symSize: 0x16C }
  - { offset: 0x1628F, size: 0x8, addend: 0x0, symName: __ZN11adv_prog_cw9MatrixAddIdEENS_15Matrix_06031927IT_EERKS3_S5_, symObjAddr: 0x4904, symBinAddr: 0x100008AA8, symSize: 0x94 }
  - { offset: 0x162D1, size: 0x8, addend: 0x0, symName: __ZN11adv_prog_cw9MatrixAddIdEENS_15Matrix_06031927IT_EERKS3_S5_._omp_fn.0, symObjAddr: 0x8280, symBinAddr: 0x10000B608, symSize: 0x124 }
  - { offset: 0x163E8, size: 0x8, addend: 0x0, symName: __ZN11adv_prog_cw13DirectInverseIdEEbRKNS_15Matrix_06031927IT_EERS3_, symObjAddr: 0x46A8, symBinAddr: 0x10000884C, symSize: 0x25C }
  - { offset: 0x1642A, size: 0x8, addend: 0x0, symName: __ZN11adv_prog_cw13DirectInverseIdEEbRKNS_15Matrix_06031927IT_EERS3_._omp_fn.0, symObjAddr: 0x7CB0, symBinAddr: 0x10000B038, symSize: 0xBC }
  - { offset: 0x164E3, size: 0x8, addend: 0x0, symName: __ZN11adv_prog_cw13DirectInverseIdEEbRKNS_15Matrix_06031927IT_EERS3_._omp_fn.1, symObjAddr: 0x7D6C, symBinAddr: 0x10000B0F4, symSize: 0x160 }
  - { offset: 0x16583, size: 0x8, addend: 0x0, symName: __ZN11adv_prog_cw13DirectInverseIdEEbRKNS_15Matrix_06031927IT_EERS3_._omp_fn.3, symObjAddr: 0x7FF4, symBinAddr: 0x10000B37C, symSize: 0x100 }
  - { offset: 0x1661A, size: 0x8, addend: 0x0, symName: __ZN11adv_prog_cw13DirectInverseIdEEbRKNS_15Matrix_06031927IT_EERS3_._omp_fn.4, symObjAddr: 0x80F4, symBinAddr: 0x10000B47C, symSize: 0x18C }
  - { offset: 0x1670E, size: 0x8, addend: 0x0, symName: __ZN11adv_prog_cw13DirectInverseIdEEbRKNS_15Matrix_06031927IT_EERS3_._omp_fn.2, symObjAddr: 0x7ECC, symBinAddr: 0x10000B254, symSize: 0x128 }
  - { offset: 0x1691F, size: 0x8, addend: 0x0, symName: __ZN11adv_prog_cw12BlockInverseIdEEbRKNS_15Matrix_06031927IT_EERS3_, symObjAddr: 0x2B90, symBinAddr: 0x1000070D8, symSize: 0x594 }
  - { offset: 0x16ADE, size: 0x8, addend: 0x0, symName: __ZN11adv_prog_cw12BlockInverseIdEEbRKNS_15Matrix_06031927IT_EERS3_._omp_fn.0, symObjAddr: 0x7A98, symBinAddr: 0x10000AE20, symSize: 0x10C }
  - { offset: 0x16B93, size: 0x8, addend: 0x0, symName: __ZN11adv_prog_cw12BlockInverseIdEEbRKNS_15Matrix_06031927IT_EERS3_._omp_fn.1, symObjAddr: 0x7BA4, symBinAddr: 0x10000AF2C, symSize: 0x10C }
  - { offset: 0x16CBD, size: 0x8, addend: 0x0, symName: __ZN11adv_prog_cw15Matrix_06031927IdEdVEd, symObjAddr: 0x111C, symBinAddr: 0x100005A70, symSize: 0xA8 }
  - { offset: 0x16CF0, size: 0x8, addend: 0x0, symName: __ZN11adv_prog_cw15Matrix_06031927IdEdVEd._omp_fn.0, symObjAddr: 0x7998, symBinAddr: 0x10000AD20, symSize: 0x100 }
  - { offset: 0x16D8A, size: 0x8, addend: 0x0, symName: __ZN11adv_prog_cw15Matrix_06031927IdEmLEd, symObjAddr: 0x10D4, symBinAddr: 0x100005A28, symSize: 0x48 }
  - { offset: 0x16DBD, size: 0x8, addend: 0x0, symName: __ZN11adv_prog_cw15Matrix_06031927IdEmLEd._omp_fn.0, symObjAddr: 0x7898, symBinAddr: 0x10000AC20, symSize: 0x100 }
  - { offset: 0x16E52, size: 0x8, addend: 0x0, symName: __ZNSt11__copy_moveILb1ELb0ESt26random_access_iterator_tagE12__assign_oneIddEEvPT_PT0_, symObjAddr: 0x7868, symBinAddr: 0x10000ABF0, symSize: 0x30 }
  - { offset: 0x16E9C, size: 0x8, addend: 0x0, symName: __ZNSt11__copy_moveILb0ELb0ESt26random_access_iterator_tagE12__assign_oneIddEEvPT_PT0_, symObjAddr: 0x7840, symBinAddr: 0x10000ABC8, symSize: 0x28 }
  - { offset: 0x16EEC, size: 0x8, addend: 0x0, symName: __ZSt4moveIRSaIdEEONSt16remove_referenceIT_E4typeEOS3_, symObjAddr: 0x7804, symBinAddr: 0x10000ABB4, symSize: 0x14 }
  - { offset: 0x16F1D, size: 0x8, addend: 0x0, symName: __ZNSt11__copy_moveILb1ELb1ESt26random_access_iterator_tagE8__copy_mIddEEPT0_PT_S6_S4_, symObjAddr: 0x7774, symBinAddr: 0x10000AB24, symSize: 0x90 }
  - { offset: 0x16F87, size: 0x8, addend: 0x0, symName: __ZNSt11__copy_moveILb0ELb1ESt26random_access_iterator_tagE8__copy_mIddEEPT0_PT_S6_S4_, symObjAddr: 0x76E4, symBinAddr: 0x10000AA94, symSize: 0x90 }
  - { offset: 0x17050, size: 0x8, addend: 0x0, symName: __ZNSt12_Vector_baseIdSaIdEEC2ERKS0_, symObjAddr: 0x762C, symBinAddr: 0x10000AA6C, symSize: 0x28 }
  - { offset: 0x17078, size: 0x8, addend: 0x0, symName: __ZSt14__copy_move_a2ILb1EPdS0_ET1_T0_S2_S1_, symObjAddr: 0x75A0, symBinAddr: 0x10000AA40, symSize: 0x2C }
  - { offset: 0x170DC, size: 0x8, addend: 0x0, symName: __ZSt14__copy_move_a2ILb0EPdS0_ET1_T0_S2_S1_, symObjAddr: 0x7574, symBinAddr: 0x10000AA14, symSize: 0x2C }
  - { offset: 0x17145, size: 0x8, addend: 0x0, symName: __ZNK9__gnu_cxx17__normal_iteratorIPdSt6vectorIdSaIdEEEplEl, symObjAddr: 0x7534, symBinAddr: 0x10000A9D4, symSize: 0x40 }
  - { offset: 0x1717E, size: 0x8, addend: 0x0, symName: __ZNK9__gnu_cxx17__normal_iteratorIPdSt6vectorIdSaIdEEE4baseEv, symObjAddr: 0x74F4, symBinAddr: 0x10000A9C0, symSize: 0x14 }
  - { offset: 0x171FC, size: 0x8, addend: 0x0, symName: __ZNSt6vectorIdSaIdEEC1ERKS0_, symObjAddr: 0x74B8, symBinAddr: 0x10000A998, symSize: 0x28 }
  - { offset: 0x17229, size: 0x8, addend: 0x0, symName: __ZNKSt12_Vector_baseIdSaIdEE13get_allocatorEv, symObjAddr: 0x7468, symBinAddr: 0x10000A948, symSize: 0x50 }
  - { offset: 0x172A6, size: 0x8, addend: 0x0, symName: __ZNKSt13move_iteratorIPSt6vectorIdSaIdEEE4baseEv, symObjAddr: 0x7450, symBinAddr: 0x10000A930, symSize: 0x18 }
  - { offset: 0x172CA, size: 0x8, addend: 0x0, symName: __ZSt14__copy_move_a1ILb1EPdS0_ET1_T0_S2_S1_, symObjAddr: 0x73DC, symBinAddr: 0x10000A904, symSize: 0x2C }
  - { offset: 0x17333, size: 0x8, addend: 0x0, symName: __ZNKSt13move_iteratorIPdE4baseEv, symObjAddr: 0x73C4, symBinAddr: 0x10000A8EC, symSize: 0x18 }
  - { offset: 0x17399, size: 0x8, addend: 0x0, symName: __ZNSt20__uninitialized_copyILb1EE13__uninit_copyIPdS2_EET0_T_S4_S3_, symObjAddr: 0x7398, symBinAddr: 0x10000A8C0, symSize: 0x2C }
  - { offset: 0x173F3, size: 0x8, addend: 0x0, symName: __ZSt14__copy_move_a1ILb0EPdS0_ET1_T0_S2_S1_, symObjAddr: 0x7354, symBinAddr: 0x10000A894, symSize: 0x2C }
  - { offset: 0x17457, size: 0x8, addend: 0x0, symName: __ZNSt12_Destroy_auxILb1EE9__destroyIN9__gnu_cxx17__normal_iteratorIPdSt6vectorIdSaIdEEEEEEvT_S9_, symObjAddr: 0x733C, symBinAddr: 0x10000A87C, symSize: 0x18 }
  - { offset: 0x1748A, size: 0x8, addend: 0x0, symName: __ZSt12__niter_wrapIN9__gnu_cxx17__normal_iteratorIPdSt6vectorIdSaIdEEEES2_ET_S7_T0_, symObjAddr: 0x72F4, symBinAddr: 0x10000A834, symSize: 0x48 }
  - { offset: 0x174D4, size: 0x8, addend: 0x0, symName: __ZSt12__niter_baseIPdSt6vectorIdSaIdEEET_N9__gnu_cxx17__normal_iteratorIS4_T0_EE, symObjAddr: 0x72A8, symBinAddr: 0x10000A814, symSize: 0x20 }
  - { offset: 0x17513, size: 0x8, addend: 0x0, symName: __ZNSt6vectorIdSaIdEE14_M_move_assignEOS1_St17integral_constantIbLb1EE, symObjAddr: 0x71E0, symBinAddr: 0x10000A76C, symSize: 0xA8 }
  - { offset: 0x175E8, size: 0x8, addend: 0x0, symName: __ZSt7forwardISt6vectorIdSaIdEEEOT_RNSt16remove_referenceIS3_E4typeE, symObjAddr: 0x71CC, symBinAddr: 0x10000A758, symSize: 0x14 }
  - { offset: 0x1761F, size: 0x8, addend: 0x0, symName: __ZSteqIPSt6vectorIdSaIdEEEbRKSt13move_iteratorIT_ES8_, symObjAddr: 0x718C, symBinAddr: 0x10000A718, symSize: 0x40 }
  - { offset: 0x17660, size: 0x8, addend: 0x0, symName: __ZSt13__copy_move_aILb1EPdS0_ET1_T0_S2_S1_, symObjAddr: 0x70A8, symBinAddr: 0x10000A6B8, symSize: 0x60 }
  - { offset: 0x176C4, size: 0x8, addend: 0x0, symName: __ZSt12__miter_baseIPdEDTcl12__miter_basecldtfp_4baseEEESt13move_iteratorIT_E, symObjAddr: 0x7088, symBinAddr: 0x10000A698, symSize: 0x20 }
  - { offset: 0x17739, size: 0x8, addend: 0x0, symName: __ZSt18uninitialized_copyIPdS0_ET0_T_S2_S1_, symObjAddr: 0x704C, symBinAddr: 0x10000A65C, symSize: 0x3C }
  - { offset: 0x177B1, size: 0x8, addend: 0x0, symName: __ZSt13__copy_move_aILb0EPdS0_ET1_T0_S2_S1_, symObjAddr: 0x6FEC, symBinAddr: 0x10000A5FC, symSize: 0x60 }
  - { offset: 0x17815, size: 0x8, addend: 0x0, symName: __ZSt12__miter_baseIPdET_S1_, symObjAddr: 0x6FD8, symBinAddr: 0x10000A5E8, symSize: 0x14 }
  - { offset: 0x17846, size: 0x8, addend: 0x0, symName: __ZSt8_DestroyIN9__gnu_cxx17__normal_iteratorIPdSt6vectorIdSaIdEEEEEvT_S7_, symObjAddr: 0x6FB0, symBinAddr: 0x10000A5C0, symSize: 0x28 }
  - { offset: 0x17887, size: 0x8, addend: 0x0, symName: __ZSt13__copy_move_aILb0EN9__gnu_cxx17__normal_iteratorIPKdSt6vectorIdSaIdEEEENS1_IPdS6_EEET1_T0_SB_SA_, symObjAddr: 0x6F50, symBinAddr: 0x10000A560, symSize: 0x60 }
  - { offset: 0x17918, size: 0x8, addend: 0x0, symName: __ZN9__gnu_cxx17__normal_iteratorIPdSt6vectorIdSaIdEEEC1ERKS1_, symObjAddr: 0x6F14, symBinAddr: 0x10000A538, symSize: 0x28 }
  - { offset: 0x17965, size: 0x8, addend: 0x0, symName: __ZNSt6vectorIdSaIdEEaSEOS1_, symObjAddr: 0x6ED0, symBinAddr: 0x10000A4F4, symSize: 0x44 }
  - { offset: 0x179B0, size: 0x8, addend: 0x0, symName: __ZSt4moveIRSt6vectorIdSaIdEEEONSt16remove_referenceIT_E4typeEOS5_, symObjAddr: 0x6EBC, symBinAddr: 0x10000A4E0, symSize: 0x14 }
  - { offset: 0x179E1, size: 0x8, addend: 0x0, symName: __ZSt10_ConstructISt6vectorIdSaIdEEJS2_EEvPT_DpOT0_, symObjAddr: 0x6E70, symBinAddr: 0x10000A494, symSize: 0x4C }
  - { offset: 0x17A31, size: 0x8, addend: 0x0, symName: __ZNKSt13move_iteratorIPSt6vectorIdSaIdEEEdeEv, symObjAddr: 0x6E58, symBinAddr: 0x10000A47C, symSize: 0x18 }
  - { offset: 0x17A5A, size: 0x8, addend: 0x0, symName: __ZNSt13move_iteratorIPSt6vectorIdSaIdEEEppEv, symObjAddr: 0x6E30, symBinAddr: 0x10000A454, symSize: 0x28 }
  - { offset: 0x17A7E, size: 0x8, addend: 0x0, symName: __ZStneIPSt6vectorIdSaIdEEEbRKSt13move_iteratorIT_ES8_, symObjAddr: 0x6E04, symBinAddr: 0x10000A428, symSize: 0x2C }
  - { offset: 0x17ABF, size: 0x8, addend: 0x0, symName: __ZSt4copyISt13move_iteratorIPdES1_ET0_T_S4_S3_, symObjAddr: 0x6D28, symBinAddr: 0x10000A3E0, symSize: 0x48 }
  - { offset: 0x17B19, size: 0x8, addend: 0x0, symName: __ZSt19__relocate_object_aISt6vectorIdSaIdEES2_SaIS2_EEvPT_PT0_RT1_, symObjAddr: 0x6C58, symBinAddr: 0x10000A310, symSize: 0xD0 }
  - { offset: 0x17C5C, size: 0x8, addend: 0x0, symName: __ZNSt12_Vector_baseIdSaIdEE12_Vector_implC1Ev, symObjAddr: 0x6C20, symBinAddr: 0x10000A2D8, symSize: 0x38 }
  - { offset: 0x17CBE, size: 0x8, addend: 0x0, symName: __ZSt22__uninitialized_copy_aIPdS0_dET0_T_S2_S1_RSaIT1_E, symObjAddr: 0x6BF0, symBinAddr: 0x10000A2A8, symSize: 0x30 }
  - { offset: 0x17D2A, size: 0x8, addend: 0x0, symName: __ZSt4copyIPdS0_ET0_T_S2_S1_, symObjAddr: 0x6BA8, symBinAddr: 0x10000A260, symSize: 0x48 }
  - { offset: 0x17DC4, size: 0x8, addend: 0x0, symName: __ZNSt6vectorIdSaIdEE3endEv, symObjAddr: 0x6B80, symBinAddr: 0x10000A238, symSize: 0x28 }
  - { offset: 0x17DE8, size: 0x8, addend: 0x0, symName: __ZSt4copyIN9__gnu_cxx17__normal_iteratorIPKdSt6vectorIdSaIdEEEENS1_IPdS6_EEET0_T_SB_SA_, symObjAddr: 0x6B38, symBinAddr: 0x10000A1F0, symSize: 0x48 }
  - { offset: 0x17E47, size: 0x8, addend: 0x0, symName: __ZNSt6vectorIdSaIdEE5beginEv, symObjAddr: 0x6B14, symBinAddr: 0x10000A1CC, symSize: 0x24 }
  - { offset: 0x17E70, size: 0x8, addend: 0x0, symName: __ZNSt6vectorIdSaIdEE20_M_allocate_and_copyIN9__gnu_cxx17__normal_iteratorIPKdS1_EEEEPdmT_S9_, symObjAddr: 0x6A90, symBinAddr: 0x10000A148, symSize: 0x84 }
  - { offset: 0x17EE2, size: 0x8, addend: 0x0, symName: __ZNKSt6vectorIdSaIdEE8capacityEv, symObjAddr: 0x6A68, symBinAddr: 0x10000A120, symSize: 0x28 }
  - { offset: 0x17F38, size: 0x8, addend: 0x0, symName: __ZNSt6vectorIdSaIdEE5clearEv, symObjAddr: 0x6A3C, symBinAddr: 0x10000A0F4, symSize: 0x2C }
  - { offset: 0x17F6E, size: 0x8, addend: 0x0, symName: __ZNSt20__copy_move_backwardILb1ELb0ESt26random_access_iterator_tagE13__copy_move_bIPSt6vectorIdSaIdEES6_EET0_T_S8_S7_, symObjAddr: 0x69B4, symBinAddr: 0x10000A06C, symSize: 0x88 }
  - { offset: 0x17FD8, size: 0x8, addend: 0x0, symName: __ZSt16__do_uninit_copyISt13move_iteratorIPSt6vectorIdSaIdEEES4_ET0_T_S7_S6_, symObjAddr: 0x690C, symBinAddr: 0x100009FC4, symSize: 0xA8 }
  - { offset: 0x18041, size: 0x8, addend: 0x0, symName: __ZNSt20__uninitialized_copyILb1EE13__uninit_copyISt13move_iteratorIPdES3_EET0_T_S6_S5_, symObjAddr: 0x6784, symBinAddr: 0x100009F98, symSize: 0x2C }
  - { offset: 0x180A7, size: 0x8, addend: 0x0, symName: __ZSt4moveIRPdEONSt16remove_referenceIT_E4typeEOS3_, symObjAddr: 0x6770, symBinAddr: 0x100009F84, symSize: 0x14 }
  - { offset: 0x180D8, size: 0x8, addend: 0x0, symName: __ZSt14__relocate_a_1IddENSt9enable_ifIXsrSt24__is_bitwise_relocatableIT_vE5valueEPS2_E4typeES4_S4_S4_RSaIT0_E, symObjAddr: 0x670C, symBinAddr: 0x100009F20, symSize: 0x64 }
  - { offset: 0x18152, size: 0x8, addend: 0x0, symName: __ZSt14__relocate_a_1IPSt6vectorIdSaIdEES3_SaIS2_EET0_T_S6_S5_RT1_, symObjAddr: 0x6674, symBinAddr: 0x100009E9C, symSize: 0x84 }
  - { offset: 0x181D5, size: 0x8, addend: 0x0, symName: __ZSt10_ConstructISt6vectorIdSaIdEEJEEvPT_DpOT0_, symObjAddr: 0x663C, symBinAddr: 0x100009E64, symSize: 0x38 }
  - { offset: 0x1822F, size: 0x8, addend: 0x0, symName: __ZNSt6vectorIdSaIdEEC1Ev, symObjAddr: 0x661C, symBinAddr: 0x100009E44, symSize: 0x20 }
  - { offset: 0x1826E, size: 0x8, addend: 0x0, symName: __ZNSt12_Vector_baseIdSaIdEEC2Ev, symObjAddr: 0x65FC, symBinAddr: 0x100009E24, symSize: 0x20 }
  - { offset: 0x18293, size: 0x8, addend: 0x0, symName: __ZNSt6vectorIdSaIdEEaSERKS1_, symObjAddr: 0x62A0, symBinAddr: 0x100009AC8, symSize: 0x35C }
  - { offset: 0x18432, size: 0x8, addend: 0x0, symName: __ZSt11__addressofIKSt6vectorIdSaIdEEEPT_RS4_, symObjAddr: 0x628C, symBinAddr: 0x100009AB4, symSize: 0x14 }
  - { offset: 0x18463, size: 0x8, addend: 0x0, symName: __ZSt23__copy_move_backward_a2ILb1EPSt6vectorIdSaIdEES3_ET1_T0_S5_S4_, symObjAddr: 0x6260, symBinAddr: 0x100009A88, symSize: 0x2C }
  - { offset: 0x184C7, size: 0x8, addend: 0x0, symName: __ZNSt20__uninitialized_copyILb0EE13__uninit_copyISt13move_iteratorIPSt6vectorIdSaIdEEES6_EET0_T_S9_S8_, symObjAddr: 0x6234, symBinAddr: 0x100009A5C, symSize: 0x2C }
  - { offset: 0x18541, size: 0x8, addend: 0x0, symName: __ZNSt22__uninitialized_fill_nILb1EE15__uninit_fill_nIPdmdEET_S3_T0_RKT1_, symObjAddr: 0x5FDC, symBinAddr: 0x100009A30, symSize: 0x2C }
  - { offset: 0x185A4, size: 0x8, addend: 0x0, symName: __ZSt18uninitialized_copyISt13move_iteratorIPdES1_ET0_T_S4_S3_, symObjAddr: 0x5FA0, symBinAddr: 0x1000099F4, symSize: 0x3C }
  - { offset: 0x18649, size: 0x8, addend: 0x0, symName: __ZNSt13move_iteratorIPdEC1ES0_, symObjAddr: 0x5F70, symBinAddr: 0x1000099C4, symSize: 0x30 }
  - { offset: 0x18671, size: 0x8, addend: 0x0, symName: __ZSt12__relocate_aIPdS0_SaIdEET0_T_S3_S2_RT1_, symObjAddr: 0x5F14, symBinAddr: 0x100009968, symSize: 0x5C }
  - { offset: 0x186E4, size: 0x8, addend: 0x0, symName: __ZSt12__relocate_aIPSt6vectorIdSaIdEES3_SaIS2_EET0_T_S6_S5_RT1_, symObjAddr: 0x5E40, symBinAddr: 0x10000990C, symSize: 0x5C }
  - { offset: 0x18757, size: 0x8, addend: 0x0, symName: __ZNSt27__uninitialized_default_n_1ILb0EE18__uninit_default_nIPSt6vectorIdSaIdEEmEET_S6_T0_, symObjAddr: 0x5DE8, symBinAddr: 0x1000098B4, symSize: 0x58 }
  - { offset: 0x187B1, size: 0x8, addend: 0x0, symName: __ZSt9__fill_a1IPSt6vectorIdSaIdEES2_EN9__gnu_cxx11__enable_ifIXntsrSt11__is_scalarIT0_E7__valueEvE6__typeET_SB_RKS7_, symObjAddr: 0x5D0C, symBinAddr: 0x100009864, symSize: 0x50 }
  - { offset: 0x1880B, size: 0x8, addend: 0x0, symName: __ZSt12__niter_wrapIPSt6vectorIdSaIdEEET_RKS4_S4_, symObjAddr: 0x5CF4, symBinAddr: 0x10000984C, symSize: 0x18 }
  - { offset: 0x18845, size: 0x8, addend: 0x0, symName: __ZSt23__copy_move_backward_a1ILb1EPSt6vectorIdSaIdEES3_ET1_T0_S5_S4_, symObjAddr: 0x5CC8, symBinAddr: 0x100009820, symSize: 0x2C }
  - { offset: 0x188A9, size: 0x8, addend: 0x0, symName: __ZSt12__niter_baseIPSt6vectorIdSaIdEEET_S4_, symObjAddr: 0x5CB4, symBinAddr: 0x10000980C, symSize: 0x14 }
  - { offset: 0x188DA, size: 0x8, addend: 0x0, symName: __ZSt18uninitialized_copyISt13move_iteratorIPSt6vectorIdSaIdEEES4_ET0_T_S7_S6_, symObjAddr: 0x5C80, symBinAddr: 0x1000097D8, symSize: 0x34 }
  - { offset: 0x1897F, size: 0x8, addend: 0x0, symName: __ZNSt13move_iteratorIPSt6vectorIdSaIdEEEC1ES3_, symObjAddr: 0x5C50, symBinAddr: 0x1000097A8, symSize: 0x30 }
  - { offset: 0x189B3, size: 0x8, addend: 0x0, symName: __ZSt4moveIRPSt6vectorIdSaIdEEEONSt16remove_referenceIT_E4typeEOS6_, symObjAddr: 0x5C3C, symBinAddr: 0x100009794, symSize: 0x14 }
  - { offset: 0x18A84, size: 0x8, addend: 0x0, symName: __ZNSt12_Vector_baseIdSaIdEE17_Vector_impl_data12_M_copy_dataERKS2_, symObjAddr: 0x5B30, symBinAddr: 0x10000974C, symSize: 0x48 }
  - { offset: 0x18AB8, size: 0x8, addend: 0x0, symName: __ZSt20uninitialized_fill_nIPdmdET_S1_T0_RKT1_, symObjAddr: 0x5AFC, symBinAddr: 0x100009718, symSize: 0x34 }
  - { offset: 0x18B2B, size: 0x8, addend: 0x0, symName: __ZSt22__uninitialized_copy_aISt13move_iteratorIPdES1_dET0_T_S4_S3_RSaIT1_E, symObjAddr: 0x5ACC, symBinAddr: 0x1000096E8, symSize: 0x30 }
  - { offset: 0x18B97, size: 0x8, addend: 0x0, symName: __ZSt32__make_move_if_noexcept_iteratorIdSt13move_iteratorIPdEET0_PT_, symObjAddr: 0x5AA8, symBinAddr: 0x1000096C4, symSize: 0x24 }
  - { offset: 0x18BD1, size: 0x8, addend: 0x0, symName: __ZNSt6vectorIdSaIdEE14_S_do_relocateEPdS2_S2_RS0_St17integral_constantIbLb1EE, symObjAddr: 0x5A70, symBinAddr: 0x10000968C, symSize: 0x38 }
  - { offset: 0x18C32, size: 0x8, addend: 0x0, symName: __ZNSt6vectorIS_IdSaIdEESaIS1_EE14_S_do_relocateEPS1_S4_S4_RS2_St17integral_constantIbLb1EE, symObjAddr: 0x59FC, symBinAddr: 0x100009654, symSize: 0x38 }
  - { offset: 0x18C93, size: 0x8, addend: 0x0, symName: __ZSt25__uninitialized_default_nIPSt6vectorIdSaIdEEmET_S4_T0_, symObjAddr: 0x59D0, symBinAddr: 0x100009628, symSize: 0x2C }
  - { offset: 0x18CF3, size: 0x8, addend: 0x0, symName: __ZNKSt12_Vector_baseISt6vectorIdSaIdEESaIS2_EE19_M_get_Tp_allocatorEv, symObjAddr: 0x59BC, symBinAddr: 0x100009614, symSize: 0x14 }
  - { offset: 0x18D17, size: 0x8, addend: 0x0, symName: __ZSt32__make_move_if_noexcept_iteratorISt6vectorIdSaIdEESt13move_iteratorIPS2_EET0_PT_, symObjAddr: 0x5998, symBinAddr: 0x1000095F0, symSize: 0x24 }
  - { offset: 0x18D51, size: 0x8, addend: 0x0, symName: __ZSt8__fill_aIPSt6vectorIdSaIdEES2_EvT_S4_RKT0_, symObjAddr: 0x5930, symBinAddr: 0x1000095C0, symSize: 0x30 }
  - { offset: 0x18DAB, size: 0x8, addend: 0x0, symName: __ZSt22__copy_move_backward_aILb1EPSt6vectorIdSaIdEES3_ET1_T0_S5_S4_, symObjAddr: 0x58D0, symBinAddr: 0x100009560, symSize: 0x60 }
  - { offset: 0x18E0F, size: 0x8, addend: 0x0, symName: __ZSt12__miter_baseIPSt6vectorIdSaIdEEET_S4_, symObjAddr: 0x58BC, symBinAddr: 0x10000954C, symSize: 0x14 }
  - { offset: 0x18E40, size: 0x8, addend: 0x0, symName: __ZSt22__uninitialized_copy_aISt13move_iteratorIPSt6vectorIdSaIdEEES4_S3_ET0_T_S7_S6_RSaIT1_E, symObjAddr: 0x588C, symBinAddr: 0x10000951C, symSize: 0x30 }
  - { offset: 0x18EAC, size: 0x8, addend: 0x0, symName: __ZSt18make_move_iteratorIPSt6vectorIdSaIdEEESt13move_iteratorIT_ES5_, symObjAddr: 0x5860, symBinAddr: 0x1000094F0, symSize: 0x2C }
  - { offset: 0x18F53, size: 0x8, addend: 0x0, symName: __ZNSt6vectorIS_IdSaIdEESaIS1_EE16_Temporary_value6_M_ptrEv, symObjAddr: 0x582C, symBinAddr: 0x1000094D0, symSize: 0x20 }
  - { offset: 0x18FA0, size: 0x8, addend: 0x0, symName: __ZNSt6vectorIS_IdSaIdEESaIS1_EE16_Temporary_value8_StorageD1Ev, symObjAddr: 0x5818, symBinAddr: 0x1000094BC, symSize: 0x14 }
  - { offset: 0x18FDF, size: 0x8, addend: 0x0, symName: __ZNSt6vectorIS_IdSaIdEESaIS1_EE16_Temporary_value8_StorageC1Ev, symObjAddr: 0x57FC, symBinAddr: 0x1000094A0, symSize: 0x1C }
  - { offset: 0x1901E, size: 0x8, addend: 0x0, symName: __ZNSt12_Vector_baseIdSaIdEE17_Vector_impl_dataC1Ev, symObjAddr: 0x575C, symBinAddr: 0x100009474, symSize: 0x2C }
  - { offset: 0x19080, size: 0x8, addend: 0x0, symName: __ZNSt12_Vector_baseIdSaIdEE17_Vector_impl_data12_M_swap_dataERS2_, symObjAddr: 0x5638, symBinAddr: 0x100009428, symSize: 0x4C }
  - { offset: 0x190D5, size: 0x8, addend: 0x0, symName: __ZSt24__uninitialized_fill_n_aIPdmddET_S1_T0_RKT1_RSaIT2_E, symObjAddr: 0x5608, symBinAddr: 0x1000093F8, symSize: 0x30 }
  - { offset: 0x1914A, size: 0x8, addend: 0x0, symName: __ZSt4swapIdENSt9enable_ifIXsrSt6__and_IJSt6__not_ISt15__is_tuple_likeIT_EESt21is_move_constructibleIS4_ESt18is_move_assignableIS4_EEE5valueEvE4typeERS4_SE_, symObjAddr: 0x55B4, symBinAddr: 0x1000093A4, symSize: 0x54 }
  - { offset: 0x191A0, size: 0x8, addend: 0x0, symName: __ZSt4moveIRdEONSt16remove_referenceIT_E4typeEOS2_, symObjAddr: 0x55A0, symBinAddr: 0x100009390, symSize: 0x14 }
  - { offset: 0x191D1, size: 0x8, addend: 0x0, symName: __ZSt34__uninitialized_move_if_noexcept_aIPdS0_SaIdEET0_T_S3_S2_RT1_, symObjAddr: 0x5550, symBinAddr: 0x100009340, symSize: 0x50 }
  - { offset: 0x19244, size: 0x8, addend: 0x0, symName: __ZNSt6vectorIdSaIdEE11_S_relocateEPdS2_S2_RS0_, symObjAddr: 0x551C, symBinAddr: 0x10000930C, symSize: 0x34 }
  - { offset: 0x192D3, size: 0x8, addend: 0x0, symName: __ZNKSt6vectorIdSaIdEE12_M_check_lenEmPKc, symObjAddr: 0x53FC, symBinAddr: 0x10000923C, symSize: 0xD0 }
  - { offset: 0x1932C, size: 0x8, addend: 0x0, symName: __ZNKSt6vectorIdSaIdEE8max_sizeEv, symObjAddr: 0x53DC, symBinAddr: 0x10000921C, symSize: 0x20 }
  - { offset: 0x19350, size: 0x8, addend: 0x0, symName: __ZNSt6vectorIS_IdSaIdEESaIS1_EE11_S_relocateEPS1_S4_S4_RS2_, symObjAddr: 0x53A8, symBinAddr: 0x1000091E8, symSize: 0x34 }
  - { offset: 0x193A8, size: 0x8, addend: 0x0, symName: __ZSt27__uninitialized_default_n_aIPSt6vectorIdSaIdEEmS2_ET_S4_T0_RSaIT1_E, symObjAddr: 0x5380, symBinAddr: 0x1000091C0, symSize: 0x28 }
  - { offset: 0x19409, size: 0x8, addend: 0x0, symName: __ZNKSt6vectorIS_IdSaIdEESaIS1_EE8max_sizeEv, symObjAddr: 0x5360, symBinAddr: 0x1000091A0, symSize: 0x20 }
  - { offset: 0x1945A, size: 0x8, addend: 0x0, symName: __ZN9__gnu_cxx17__normal_iteratorIPSt6vectorIdSaIdEES1_IS3_SaIS3_EEEC1ERKS4_, symObjAddr: 0x5338, symBinAddr: 0x100009178, symSize: 0x28 }
  - { offset: 0x19482, size: 0x8, addend: 0x0, symName: __ZSt34__uninitialized_move_if_noexcept_aIPSt6vectorIdSaIdEES3_SaIS2_EET0_T_S6_S5_RT1_, symObjAddr: 0x52E8, symBinAddr: 0x100009128, symSize: 0x50 }
  - { offset: 0x194FA, size: 0x8, addend: 0x0, symName: __ZNKSt6vectorIS_IdSaIdEESaIS1_EE12_M_check_lenEmPKc, symObjAddr: 0x51C8, symBinAddr: 0x100009058, symSize: 0xD0 }
  - { offset: 0x1954E, size: 0x8, addend: 0x0, symName: __ZSt4fillIPSt6vectorIdSaIdEES2_EvT_S4_RKT0_, symObjAddr: 0x5198, symBinAddr: 0x100009028, symSize: 0x30 }
  - { offset: 0x195A8, size: 0x8, addend: 0x0, symName: __ZSt13move_backwardIPSt6vectorIdSaIdEES3_ET0_T_S5_S4_, symObjAddr: 0x5150, symBinAddr: 0x100008FE0, symSize: 0x48 }
  - { offset: 0x19607, size: 0x8, addend: 0x0, symName: __ZNK9__gnu_cxx17__normal_iteratorIPSt6vectorIdSaIdEES1_IS3_SaIS3_EEE4baseEv, symObjAddr: 0x513C, symBinAddr: 0x100008FCC, symSize: 0x14 }
  - { offset: 0x1962B, size: 0x8, addend: 0x0, symName: __ZSt22__uninitialized_move_aIPSt6vectorIdSaIdEES3_SaIS2_EET0_T_S6_S5_RT1_, symObjAddr: 0x50EC, symBinAddr: 0x100008F7C, symSize: 0x50 }
  - { offset: 0x196A4, size: 0x8, addend: 0x0, symName: __ZN9__gnu_cxxmiIPSt6vectorIdSaIdEES1_IS3_SaIS3_EEEENS_17__normal_iteratorIT_T0_E15difference_typeERKSA_SD_, symObjAddr: 0x50A0, symBinAddr: 0x100008F30, symSize: 0x4C }
  - { offset: 0x196F3, size: 0x8, addend: 0x0, symName: __ZNSt6vectorIS_IdSaIdEESaIS1_EE16_Temporary_value6_M_valEv, symObjAddr: 0x5088, symBinAddr: 0x100008F18, symSize: 0x18 }
  - { offset: 0x19740, size: 0x8, addend: 0x0, symName: __ZNSt6vectorIS_IdSaIdEESaIS1_EE16_Temporary_valueD1Ev, symObjAddr: 0x5020, symBinAddr: 0x100008EB0, symSize: 0x68 }
  - { offset: 0x197FA, size: 0x8, addend: 0x0, symName: __ZNSt6vectorIS_IdSaIdEESaIS1_EE16_Temporary_valueC1IJRKS1_EEEPS3_DpOT_, symObjAddr: 0x4F24, symBinAddr: 0x100008DB4, symSize: 0xFC }
  - { offset: 0x198FD, size: 0x8, addend: 0x0, symName: __ZNSt12_Vector_baseIdSaIdEE17_Vector_impl_dataC2EOS2_, symObjAddr: 0x4BA0, symBinAddr: 0x100008D44, symSize: 0x70 }
  - { offset: 0x19954, size: 0x8, addend: 0x0, symName: __ZSt4moveIRNSt12_Vector_baseIdSaIdEE12_Vector_implEEONSt16remove_referenceIT_E4typeEOS6_, symObjAddr: 0x4B8C, symBinAddr: 0x100008D30, symSize: 0x14 }
  - { offset: 0x1998A, size: 0x8, addend: 0x0, symName: __ZNSt6vectorIdSaIdEE4swapERS1_, symObjAddr: 0x4AC4, symBinAddr: 0x100008C68, symSize: 0xC8 }
  - { offset: 0x19A92, size: 0x8, addend: 0x0, symName: __ZNSt6vectorIdSaIdEE18_M_fill_initializeEmRKd, symObjAddr: 0x4A6C, symBinAddr: 0x100008C10, symSize: 0x58 }
  - { offset: 0x19AD6, size: 0x8, addend: 0x0, symName: __ZN11adv_prog_cw8SetBlockIdEEvRNS_15Matrix_06031927IT_EERKS3_mm, symObjAddr: 0x4998, symBinAddr: 0x100008B3C, symSize: 0xD4 }
  - { offset: 0x19B9B, size: 0x8, addend: 0x0, symName: __ZN11adv_prog_cw12ExtractBlockIdEENS_15Matrix_06031927IT_EERKS3_mmmm, symObjAddr: 0x4488, symBinAddr: 0x10000862C, symSize: 0xEC }
  - { offset: 0x19C65, size: 0x8, addend: 0x0, symName: __ZNSt6vectorIdSaIdEE15_M_erase_at_endEPd, symObjAddr: 0x4400, symBinAddr: 0x1000085A4, symSize: 0x88 }
  - { offset: 0x19CF3, size: 0x8, addend: 0x0, symName: __ZNSt6vectorIdSaIdEE17_M_default_appendEm, symObjAddr: 0x4178, symBinAddr: 0x10000831C, symSize: 0x288 }
  - { offset: 0x19E9F, size: 0x8, addend: 0x0, symName: __ZZNSt6vectorIdSaIdEE17_M_default_appendEmEN6_GuardC1EPdmRS0_, symObjAddr: 0x4010, symBinAddr: 0x1000081B4, symSize: 0x44 }
  - { offset: 0x19EE0, size: 0x8, addend: 0x0, symName: __ZZNSt6vectorIdSaIdEE17_M_default_appendEmEN6_GuardD1Ev, symObjAddr: 0x4054, symBinAddr: 0x1000081F8, symSize: 0x60 }
  - { offset: 0x1A011, size: 0x8, addend: 0x0, symName: __ZZNSt6vectorIdSaIdEE17_M_default_appendEmEN11_Guard_eltsC1EPdmRS0_, symObjAddr: 0x40DC, symBinAddr: 0x100008280, symSize: 0x50 }
  - { offset: 0x1A052, size: 0x8, addend: 0x0, symName: __ZZNSt6vectorIdSaIdEE17_M_default_appendEmEN11_Guard_eltsD1Ev, symObjAddr: 0x412C, symBinAddr: 0x1000082D0, symSize: 0x4C }
  - { offset: 0x1A0A7, size: 0x8, addend: 0x0, symName: __ZNSt6vectorIdSaIdEE19_S_nothrow_relocateESt17integral_constantIbLb1EE, symObjAddr: 0x40C8, symBinAddr: 0x10000826C, symSize: 0x14 }
  - { offset: 0x1A0C9, size: 0x8, addend: 0x0, symName: __ZNSt6vectorIdSaIdEE15_S_use_relocateEv, symObjAddr: 0x40B4, symBinAddr: 0x100008258, symSize: 0x14 }
  - { offset: 0x1A0E5, size: 0x8, addend: 0x0, symName: __ZNSt6vectorIS_IdSaIdEESaIS1_EE17_M_default_appendEm, symObjAddr: 0x3D30, symBinAddr: 0x100007ED4, symSize: 0x2E0 }
  - { offset: 0x1A291, size: 0x8, addend: 0x0, symName: __ZZNSt6vectorIS_IdSaIdEESaIS1_EE17_M_default_appendEmEN6_GuardC1EPS1_mRS2_, symObjAddr: 0x3BB8, symBinAddr: 0x100007D5C, symSize: 0x44 }
  - { offset: 0x1A2D2, size: 0x8, addend: 0x0, symName: __ZZNSt6vectorIS_IdSaIdEESaIS1_EE17_M_default_appendEmEN6_GuardD1Ev, symObjAddr: 0x3BFC, symBinAddr: 0x100007DA0, symSize: 0x60 }
  - { offset: 0x1A403, size: 0x8, addend: 0x0, symName: __ZZNSt6vectorIS_IdSaIdEESaIS1_EE17_M_default_appendEmEN11_Guard_eltsC1EPS1_mRS2_, symObjAddr: 0x3C84, symBinAddr: 0x100007E28, symSize: 0x60 }
  - { offset: 0x1A444, size: 0x8, addend: 0x0, symName: __ZZNSt6vectorIS_IdSaIdEESaIS1_EE17_M_default_appendEmEN11_Guard_eltsD1Ev, symObjAddr: 0x3CE4, symBinAddr: 0x100007E88, symSize: 0x4C }
  - { offset: 0x1A499, size: 0x8, addend: 0x0, symName: __ZNSt6vectorIS_IdSaIdEESaIS1_EE19_S_nothrow_relocateESt17integral_constantIbLb1EE, symObjAddr: 0x3C70, symBinAddr: 0x100007E14, symSize: 0x14 }
  - { offset: 0x1A4BB, size: 0x8, addend: 0x0, symName: __ZNSt6vectorIS_IdSaIdEESaIS1_EE15_S_use_relocateEv, symObjAddr: 0x3C5C, symBinAddr: 0x100007E00, symSize: 0x14 }
  - { offset: 0x1A4D7, size: 0x8, addend: 0x0, symName: __ZNSt6vectorIS_IdSaIdEESaIS1_EE15_M_erase_at_endEPS1_, symObjAddr: 0x3B24, symBinAddr: 0x100007CC8, symSize: 0x94 }
  - { offset: 0x1A565, size: 0x8, addend: 0x0, symName: __ZNSt6vectorIS_IdSaIdEESaIS1_EE3endEv, symObjAddr: 0x3AFC, symBinAddr: 0x100007CA0, symSize: 0x28 }
  - { offset: 0x1A58E, size: 0x8, addend: 0x0, symName: __ZNSt6vectorIS_IdSaIdEESaIS1_EE14_M_fill_insertEN9__gnu_cxx17__normal_iteratorIPS1_S3_EEmRKS1_, symObjAddr: 0x3600, symBinAddr: 0x1000077A4, symSize: 0x4FC }
  - { offset: 0x1A74C, size: 0x8, addend: 0x0, symName: __ZNKSt6vectorIS_IdSaIdEESaIS1_EE4sizeEv, symObjAddr: 0x35CC, symBinAddr: 0x100007770, symSize: 0x34 }
  - { offset: 0x1A83E, size: 0x8, addend: 0x0, symName: __ZNSt12_Vector_baseIdSaIdEE12_Vector_implC1EOS2_, symObjAddr: 0x31E4, symBinAddr: 0x100007704, symSize: 0x6C }
  - { offset: 0x1A8B8, size: 0x8, addend: 0x0, symName: __ZSt4swapIdSaIdEEvRSt6vectorIT_T0_ES5_, symObjAddr: 0x3194, symBinAddr: 0x1000076DC, symSize: 0x28 }
  - { offset: 0x1A94B, size: 0x8, addend: 0x0, symName: __ZNSt6vectorIdSaIdEEC1EmRKdRKS0_, symObjAddr: 0x3124, symBinAddr: 0x10000766C, symSize: 0x70 }
  - { offset: 0x1A983, size: 0x8, addend: 0x0, symName: __ZN11adv_prog_cw16BlockDeterminantIdEEbRKNS_15Matrix_06031927IT_EERS2_, symObjAddr: 0x272C, symBinAddr: 0x100006C74, symSize: 0x464 }
  - { offset: 0x1AAB5, size: 0x8, addend: 0x0, symName: __ZNKSt6vectorIdSaIdEEixEm, symObjAddr: 0x2704, symBinAddr: 0x100006C4C, symSize: 0x28 }
  - { offset: 0x1AAEE, size: 0x8, addend: 0x0, symName: __ZNKSt6vectorIS_IdSaIdEESaIS1_EEixEm, symObjAddr: 0x26D0, symBinAddr: 0x100006C18, symSize: 0x34 }
  - { offset: 0x1AB27, size: 0x8, addend: 0x0, symName: __ZNSt6vectorIdSaIdEE6resizeEm, symObjAddr: 0x2620, symBinAddr: 0x100006B68, symSize: 0xB0 }
  - { offset: 0x1AB60, size: 0x8, addend: 0x0, symName: __ZNSt6vectorIS_IdSaIdEESaIS1_EE6resizeEm, symObjAddr: 0x2564, symBinAddr: 0x100006AAC, symSize: 0xBC }
  - { offset: 0x1AB99, size: 0x8, addend: 0x0, symName: __ZNSt6vectorIS_IdSaIdEESaIS1_EE6resizeEmRKS1_, symObjAddr: 0x242C, symBinAddr: 0x1000069D0, symSize: 0xDC }
  - { offset: 0x1AC52, size: 0x8, addend: 0x0, symName: __ZNSt6vectorIS_IdSaIdEESaIS1_EED1Ev, symObjAddr: 0x229C, symBinAddr: 0x100006974, symSize: 0x5C }
  - { offset: 0x1ACE4, size: 0x8, addend: 0x0, symName: __ZNSt12_Vector_baseISt6vectorIdSaIdEESaIS2_EE12_Vector_implC1Ev, symObjAddr: 0x2208, symBinAddr: 0x10000693C, symSize: 0x38 }
  - { offset: 0x1AD6A, size: 0x8, addend: 0x0, symName: __ZNSt6vectorIdSaIdEEC1EOS1_, symObjAddr: 0x21E0, symBinAddr: 0x100006914, symSize: 0x28 }
  - { offset: 0x1ADB6, size: 0x8, addend: 0x0, symName: __ZNSt12_Vector_baseIdSaIdEEC2EOS1_, symObjAddr: 0x21B8, symBinAddr: 0x1000068EC, symSize: 0x28 }
  - { offset: 0x1AE04, size: 0x8, addend: 0x0, symName: __ZNSt6vectorIS_IdSaIdEESaIS1_EEC1Ev, symObjAddr: 0x216C, symBinAddr: 0x1000068CC, symSize: 0x20 }
  - { offset: 0x1AE43, size: 0x8, addend: 0x0, symName: __ZNSt12_Vector_baseISt6vectorIdSaIdEESaIS2_EEC2Ev, symObjAddr: 0x214C, symBinAddr: 0x1000068AC, symSize: 0x20 }
  - { offset: 0x1AE63, size: 0x8, addend: 0x0, symName: __ZN11adv_prog_cwmlIdEENS_15Matrix_06031927IT_EERKSt6vectorIS2_SaIS2_EERKS3_, symObjAddr: 0x1F00, symBinAddr: 0x10000668C, symSize: 0x220 }
  - { offset: 0x1AF16, size: 0x8, addend: 0x0, symName: __ZN11adv_prog_cwmlIdEESt6vectorIT_SaIS2_EERKNS_15Matrix_06031927IS2_EERKS4_, symObjAddr: 0x1D54, symBinAddr: 0x1000064E0, symSize: 0x1AC }
  - { offset: 0x1B03E, size: 0x8, addend: 0x0, symName: __ZN11adv_prog_cwmlIdEENS_15Matrix_06031927IT_EERKS3_S5_, symObjAddr: 0x1AE8, symBinAddr: 0x100006274, symSize: 0x26C }
  - { offset: 0x1B0F1, size: 0x8, addend: 0x0, symName: __ZN11adv_prog_cwmiIdEENS_15Matrix_06031927IT_EERKS3_S5_, symObjAddr: 0x1A90, symBinAddr: 0x10000621C, symSize: 0x58 }
  - { offset: 0x1B141, size: 0x8, addend: 0x0, symName: __ZN11adv_prog_cwplIdEENS_15Matrix_06031927IT_EERKS3_S5_, symObjAddr: 0x1A38, symBinAddr: 0x1000061C4, symSize: 0x58 }
  - { offset: 0x1B196, size: 0x8, addend: 0x0, symName: __ZNK11adv_prog_cw15Matrix_06031927IdE10CheckSizesERKS1_PKc, symObjAddr: 0x184C, symBinAddr: 0x100005FD8, symSize: 0x1EC }
  - { offset: 0x1B1DF, size: 0x8, addend: 0x0, symName: __ZNK11adv_prog_cw15Matrix_06031927IdE7InverseEv, symObjAddr: 0x120C, symBinAddr: 0x100005B60, symSize: 0xB4 }
  - { offset: 0x1B218, size: 0x8, addend: 0x0, symName: __ZNK11adv_prog_cw15Matrix_06031927IdE11DeterminantERd, symObjAddr: 0x11C4, symBinAddr: 0x100005B18, symSize: 0x48 }
  - { offset: 0x1B251, size: 0x8, addend: 0x0, symName: __ZNK11adv_prog_cw15Matrix_06031927IdE3OutEl, symObjAddr: 0xE74, symBinAddr: 0x1000057C8, symSize: 0x260 }
  - { offset: 0x1B2FE, size: 0x8, addend: 0x0, symName: __ZNK11adv_prog_cw15Matrix_06031927IdE10TransposedERS1_, symObjAddr: 0xDAC, symBinAddr: 0x100005700, symSize: 0xC8 }
  - { offset: 0x1B379, size: 0x8, addend: 0x0, symName: __ZN11adv_prog_cw15Matrix_06031927IdE4ZeroEv, symObjAddr: 0xD28, symBinAddr: 0x10000567C, symSize: 0x84 }
  - { offset: 0x1B3E4, size: 0x8, addend: 0x0, symName: __ZN11adv_prog_cw15Matrix_06031927IdE8IdentityEv, symObjAddr: 0xC74, symBinAddr: 0x1000055C8, symSize: 0xB4 }
  - { offset: 0x1B44F, size: 0x8, addend: 0x0, symName: __ZN11adv_prog_cw15Matrix_06031927IdEmIERKS1_, symObjAddr: 0xBB4, symBinAddr: 0x100005508, symSize: 0xC0 }
  - { offset: 0x1B4CA, size: 0x8, addend: 0x0, symName: __ZN11adv_prog_cw15Matrix_06031927IdEpLERKS1_, symObjAddr: 0xAF4, symBinAddr: 0x100005448, symSize: 0xC0 }
  - { offset: 0x1B545, size: 0x8, addend: 0x0, symName: __ZN11adv_prog_cw15Matrix_06031927IdEaSEd, symObjAddr: 0xA6C, symBinAddr: 0x1000053C0, symSize: 0x88 }
  - { offset: 0x1B5C0, size: 0x8, addend: 0x0, symName: __ZN11adv_prog_cw15Matrix_06031927IdEaSERKS1_, symObjAddr: 0x910, symBinAddr: 0x100005264, symSize: 0x15C }
  - { offset: 0x1B6B8, size: 0x8, addend: 0x0, symName: __ZNK11adv_prog_cw15Matrix_06031927IdEclEmm, symObjAddr: 0x8C8, symBinAddr: 0x10000521C, symSize: 0x48 }
  - { offset: 0x1B701, size: 0x8, addend: 0x0, symName: __ZN11adv_prog_cw15Matrix_06031927IdE6ResizeEmm, symObjAddr: 0x7C4, symBinAddr: 0x100005160, symSize: 0xBC }
  - { offset: 0x1B76B, size: 0x8, addend: 0x0, symName: __ZNK11adv_prog_cw15Matrix_06031927IdE4ColsEv, symObjAddr: 0x7AC, symBinAddr: 0x100005148, symSize: 0x18 }
  - { offset: 0x1B794, size: 0x8, addend: 0x0, symName: __ZNK11adv_prog_cw15Matrix_06031927IdE4RowsEv, symObjAddr: 0x794, symBinAddr: 0x100005130, symSize: 0x18 }
  - { offset: 0x1B7E1, size: 0x8, addend: 0x0, symName: __ZN11adv_prog_cw15Matrix_06031927IdED1Ev, symObjAddr: 0x774, symBinAddr: 0x100005110, symSize: 0x20 }
  - { offset: 0x1B80A, size: 0x8, addend: 0x0, symName: __ZN11adv_prog_cw15Matrix_06031927IdED2Ev, symObjAddr: 0x754, symBinAddr: 0x1000050F0, symSize: 0x20 }
  - { offset: 0x1B856, size: 0x8, addend: 0x0, symName: __ZN11adv_prog_cw15Matrix_06031927IdEC1ERKS1_, symObjAddr: 0x708, symBinAddr: 0x1000050A4, symSize: 0x4C }
  - { offset: 0x1B887, size: 0x8, addend: 0x0, symName: __ZN11adv_prog_cw15Matrix_06031927IdEC2ERKS1_, symObjAddr: 0x6BC, symBinAddr: 0x100005058, symSize: 0x4C }
  - { offset: 0x1B915, size: 0x8, addend: 0x0, symName: __ZN11adv_prog_cw15Matrix_06031927IdEC1Emmd, symObjAddr: 0x57C, symBinAddr: 0x100004F18, symSize: 0x140 }
  - { offset: 0x1BA2F, size: 0x8, addend: 0x0, symName: __ZN11adv_prog_cw15Matrix_06031927IdEC2Emmd, symObjAddr: 0x43C, symBinAddr: 0x100004DD8, symSize: 0x140 }
  - { offset: 0x1BB79, size: 0x8, addend: 0x0, symName: __ZN11adv_prog_cw15Matrix_06031927IdEC2Emm, symObjAddr: 0x26C, symBinAddr: 0x100004CF0, symSize: 0xE8 }
  - { offset: 0x1BCC1, size: 0x8, addend: 0x0, symName: __ZN11adv_prog_cw15Matrix_06031927IdEC1Ev, symObjAddr: 0x23C, symBinAddr: 0x100004CC0, symSize: 0x30 }
  - { offset: 0x1BCEA, size: 0x8, addend: 0x0, symName: __ZN11adv_prog_cw15Matrix_06031927IdEC2Ev, symObjAddr: 0x20C, symBinAddr: 0x100004C90, symSize: 0x30 }
  - { offset: 0x1BD1A, size: 0x8, addend: 0x0, symName: __ZNSt8ios_base9precisionEl, symObjAddr: 0x1DC, symBinAddr: 0x100004C60, symSize: 0x30 }
  - { offset: 0x1BD63, size: 0x8, addend: 0x0, symName: __ZNSt8ios_base6unsetfESt13_Ios_Fmtflags, symObjAddr: 0x19C, symBinAddr: 0x100004C20, symSize: 0x40 }
  - { offset: 0x1BD9C, size: 0x8, addend: 0x0, symName: __ZNSt8ios_base4setfESt13_Ios_Fmtflags, symObjAddr: 0x164, symBinAddr: 0x100004BE8, symSize: 0x38 }
  - { offset: 0x1BDEC, size: 0x8, addend: 0x0, symName: __ZStaNRSt13_Ios_FmtflagsS_, symObjAddr: 0x12C, symBinAddr: 0x100004BB0, symSize: 0x38 }
  - { offset: 0x1BE24, size: 0x8, addend: 0x0, symName: __ZStoRRSt13_Ios_FmtflagsS_, symObjAddr: 0xF4, symBinAddr: 0x100004B78, symSize: 0x38 }
  - { offset: 0x1BE5C, size: 0x8, addend: 0x0, symName: __ZStcoSt13_Ios_Fmtflags, symObjAddr: 0xDC, symBinAddr: 0x100004B60, symSize: 0x18 }
  - { offset: 0x1BE84, size: 0x8, addend: 0x0, symName: __ZStorSt13_Ios_FmtflagsS_, symObjAddr: 0xBC, symBinAddr: 0x100004B40, symSize: 0x20 }
  - { offset: 0x1BEBC, size: 0x8, addend: 0x0, symName: __ZStanSt13_Ios_FmtflagsS_, symObjAddr: 0x9C, symBinAddr: 0x100004B20, symSize: 0x20 }
  - { offset: 0x1BEF9, size: 0x8, addend: 0x0, symName: __ZNKSt9type_info4nameEv, symObjAddr: 0x44, symBinAddr: 0x100004AE4, symSize: 0x3C }
...
